

Microchip MPLAB XC8 Assembler V2.31 build 20201012212115 
                                                                                               Sun Mar 07 00:51:44 2021

Microchip MPLAB XC8 C Compiler v2.31 (Free license) build 20201012212115 Og1 
     1                           	processor	18F26K83
     2                           	fnconf	rparam,??,?,0
     3                           	pagewidth 120
     4                           	opt	flic
     5                           	psect	intcode,global,reloc=2,class=CODE,delta=1
     6                           	psect	intcodelo,global,reloc=2,class=CODE,delta=1
     7                           	psect	text0,global,reloc=2,class=CODE,delta=1
     8                           	psect	nvCOMRAM,global,class=COMRAM,space=1,delta=1,lowdata,noexec
     9                           	psect	cinit,global,reloc=2,class=CODE,delta=1
    10                           	psect	bssCOMRAM,global,class=COMRAM,space=1,delta=1,lowdata,noexec
    11                           	psect	bssBANK0,global,class=BANK0,space=1,delta=1,lowdata,noexec
    12                           	psect	cstackCOMRAM,global,class=COMRAM,space=1,delta=1,lowdata,noexec
    13                           	psect	text1,global,reloc=2,class=CODE,delta=1
    14                           	psect	text2,global,reloc=2,class=CODE,delta=1
    15                           	psect	text3,global,reloc=2,class=CODE,delta=1
    16                           	psect	text4,global,reloc=2,class=CODE,delta=1
    17                           	psect	text5,global,reloc=2,class=CODE,delta=1
    18                           	psect	text6,global,reloc=2,class=CODE,delta=1
    19                           	psect	text7,global,reloc=2,class=CODE,delta=1
    20                           	psect	text8,global,reloc=2,class=CODE,delta=1
    21                           	psect	text9,global,reloc=2,class=CODE,delta=1
    22                           	psect	text10,global,reloc=2,class=CODE,delta=1
    23                           	psect	text11,global,reloc=2,class=CODE,delta=1
    24                           	psect	text12,global,reloc=2,class=CODE,delta=1
    25                           	psect	text13,global,reloc=2,class=CODE,delta=1
    26                           	psect	text14,global,reloc=2,class=CODE,delta=1
    27                           	psect	text15,global,reloc=2,class=CODE,delta=1
    28                           	psect	text16,global,reloc=2,class=CODE,delta=1
    29                           	psect	text17,global,reloc=2,class=CODE,delta=1
    30                           	psect	text18,global,reloc=2,class=CODE,delta=1
    31                           	psect	text19,global,reloc=2,class=CODE,delta=1
    32                           	psect	text20,global,reloc=2,class=CODE,delta=1
    33                           	psect	text21,global,reloc=2,class=CODE,delta=1
    34                           	psect	text22,global,reloc=2,class=CODE,delta=1
    35                           	psect	text23,global,reloc=2,class=CODE,delta=1
    36                           	psect	text24,global,reloc=2,class=CODE,delta=1
    37                           	psect	text25,global,reloc=2,class=CODE,delta=1
    38                           	psect	text26,global,reloc=2,class=CODE,delta=1
    39                           	psect	text27,global,reloc=2,class=CODE,delta=1
    40                           	psect	intsave_regs,global,class=BIGRAM,space=1,delta=1,noexec
    41                           	psect	text28,global,reloc=2,class=CODE,delta=1
    42                           	psect	rparam,global,class=COMRAM,space=1,delta=1,noexec
    43                           	psect	idloc,global,abs,ovrld,class=IDLOC,space=5,delta=1,noexec
    44                           	psect	config,global,abs,ovrld,class=CONFIG,space=4,delta=1,noexec
    45                           	dabs	1,0x1,1,_EE_Key_2
    46  0000                     
    47                           ; Version 2.20
    48                           ; Generated 05/05/2020 GMT
    49                           ; 
    50                           ; Copyright © 2020, Microchip Technology Inc. and its subsidiaries ("Microchip")
    51                           ; All rights reserved.
    52                           ; 
    53                           ; This software is developed by Microchip Technology Inc. and its subsidiaries ("Microch
      +                          ip").
    54                           ; 
    55                           ; Redistribution and use in source and binary forms, with or without modification, are
    56                           ; permitted provided that the following conditions are met:
    57                           ; 
    58                           ;     1. Redistributions of source code must retain the above copyright notice, this lis
      +                          t of
    59                           ;        conditions and the following disclaimer.
    60                           ; 
    61                           ;     2. Redistributions in binary form must reproduce the above copyright notice, this 
      +                          list
    62                           ;        of conditions and the following disclaimer in the documentation and/or other
    63                           ;        materials provided with the distribution.
    64                           ; 
    65                           ;     3. Microchip's name may not be used to endorse or promote products derived from th
      +                          is
    66                           ;        software without specific prior written permission.
    67                           ; 
    68                           ; THIS SOFTWARE IS PROVIDED BY MICROCHIP "AS IS" AND ANY EXPRESS OR IMPLIED WARRANTIES,
    69                           ; INCLUDING, BUT NOT LIMITED TO, THE IMPLIED WARRANTIES OF MERCHANTABILITY AND FITNESS F
      +                          OR
    70                           ; PURPOSE ARE DISCLAIMED.  IN NO EVENT SHALL MICROCHIP BE LIABLE FOR ANY DIRECT, INDIREC
      +                          T,
    71                           ; INCIDENTAL, SPECIAL, EXEMPLARY, OR CONSEQUENTIAL DAMAGES (INCLUDING BUT NOT LIMITED TO
    72                           ; PROCUREMENT OF SUBSTITUTE GOODS OR SERVICES; LOSS OF USE, DATA OR PROFITS; OR BUSINESS
    73                           ; INTERRUPTION) HOWSOEVER CAUSED AND ON ANY THEORY OF LIABILITY, WHETHER IN CONTRACT, ST
      +                          RICT
    74                           ; LIABILITY, OR TORT (INCLUDING NEGLIGENCE OR OTHERWISE) ARISING IN ANY WAY OUT OF THE U
      +                          SE OF
    75                           ; THIS SOFTWARE, EVEN IF ADVISED OF THE POSSIBILITY OF SUCH DAMAGE.
    76                           ; 
    77                           ; 
    78                           ; Code-generator required, PIC18F26K83 Definitions
    79                           ; 
    80                           ; SFR Addresses
    81  0000                     
    82                           	psect	intcode
    83  00F7F4  EF84 F002          	goto	1288	;# 
    84                           
    85                           	psect	intcodelo
    86  00F7F0  EF8C F002          	goto	1304	;# 
    87  0000                     
    88 ;;
    89 ;;Main: autosize = 0, tempsize = 1, incstack = 0, save=0
    90 ;;
    91 ;; *************** function _main *****************
    92 ;; Defined at:
    93 ;;		line 53 in file "main.c"
    94 ;; Parameters:    Size  Location     Type
    95 ;;		None
    96 ;; Auto vars:     Size  Location     Type
    97 ;;		None
    98 ;; Return value:  Size  Location     Type
    99 ;;                  1    wreg      void 
   100 ;; Registers used:
   101 ;;		wreg, fsr2l, fsr2h, status,2, status,0, pclath, tosl, cstack
   102 ;; Tracked objects:
   103 ;;		On entry : 0/0
   104 ;;		On exit  : 0/0
   105 ;;		Unchanged: 0/0
   106 ;; Data sizes:     COMRAM   BANK0   BANK1   BANK2   BANK3   BANK4   BANK5   BANK6   BANK7   BANK8   BANK9  BANK10  BANK1
      +1  BANK12  BANK13  BANK14  BANK15
   107 ;;      Params:         0       0       0       0       0       0       0       0       0       0       0       0       
      +0       0       0       0       0
   108 ;;      Locals:         0       0       0       0       0       0       0       0       0       0       0       0       
      +0       0       0       0       0
   109 ;;      Temps:          1       0       0       0       0       0       0       0       0       0       0       0       
      +0       0       0       0       0
   110 ;;      Totals:         1       0       0       0       0       0       0       0       0       0       0       0       
      +0       0       0       0       0
   111 ;;Total ram usage:        1 bytes
   112 ;; Hardware stack levels required when called:    5
   113 ;; This function calls:
   114 ;;		_AutobaudComplete
   115 ;;		_BOOTLOADER_Initialize
   116 ;;		_SYSTEM_Initialize
   117 ;; This function is called by:
   118 ;;		Startup code after reset
   119 ;; This function uses a non-reentrant model
   120 ;;
   121                           
   122                           	psect	text0
   123  00F938                     __ptext0:
   124                           	callstack 0
   125  00F938                     _main:
   126                           	callstack 26
   127  00F938                     
   128                           ;main.c: 56:     SYSTEM_Initialize();
   129  00F938  EC14  F07C         	call	_SYSTEM_Initialize	;wreg free
   130  00F93C                     l1711:
   131                           
   132                           ;main.c: 69:     {;main.c: 70:         if(AutobaudComplete()){
   133  00F93C  EC27  F07C         	call	_AutobaudComplete	;wreg free
   134  00F940  0900               	iorlw	0
   135  00F942  B4D8               	btfsc	status,2,c
   136  00F944  EFA6  F07C         	goto	u541
   137  00F948  EFA8  F07C         	goto	u540
   138  00F94C                     u541:
   139  00F94C  EFAA  F07C         	goto	l1715
   140  00F950                     u540:
   141  00F950                     
   142                           ;main.c: 72:             BOOTLOADER_Initialize();
   143  00F950  EC56  F07C         	call	_BOOTLOADER_Initialize	;wreg free
   144  00F954                     l1715:
   145                           
   146                           ;main.c: 77:         _delay((unsigned long)((5)*(16000000/4000.0)));
   147  00F954  0E1A               	movlw	26
   148  00F956  6E10               	movwf	??_main^0,c
   149  00F958  0EF8               	movlw	248
   150  00F95A                     u557:
   151  00F95A  2EE8               	decfsz	wreg,f,c
   152  00F95C  D7FE               	bra	u557
   153  00F95E  2E10               	decfsz	??_main^0,f,c
   154  00F960  D7FC               	bra	u557
   155  00F962  D000               	nop2	
   156  00F964  EF9E  F07C         	goto	l1711
   157  00F968  EFFE  F07F         	goto	start
   158  00F96C                     __end_of_main:
   159                           	callstack 0
   160                           
   161                           	psect	nvCOMRAM
   162  000019                     __pnvCOMRAM:
   163                           	callstack 0
   164  000019                     _UART1_ErrorHandler:
   165                           	callstack 0
   166  000019                     	ds	2
   167  00001B                     _UART1_OverrunErrorHandler:
   168                           	callstack 0
   169  00001B                     	ds	2
   170  00001D                     _UART1_FramingErrorHandler:
   171                           	callstack 0
   172  00001D                     	ds	2
   173  0000                     _PIR3bits	set	14755
   174  0000                     _PIR0bits	set	14752
   175  0000                     _NVMDAT	set	14819
   176  0000                     _NVMADRL	set	14816
   177  0000                     _NVMADRH	set	14817
   178  0000                     _NVMCON2	set	14822
   179  0000                     _NVMCON1bits	set	14821
   180  0000                     _NVMCON1	set	14821
   181  0000                     _PMD7	set	14791
   182  0000                     _PMD6	set	14790
   183  0000                     _PMD5	set	14789
   184  0000                     _PMD4	set	14788
   185  0000                     _PMD3	set	14787
   186  0000                     _PMD2	set	14786
   187  0000                     _PMD1	set	14785
   188  0000                     _PMD0	set	14784
   189  0000                     _OSCTUNE	set	14814
   190  0000                     _OSCFRQ	set	14815
   191  0000                     _OSCEN	set	14813
   192  0000                     _OSCCON3	set	14811
   193  0000                     _OSCCON1	set	14809
   194  0000                     _U1RXPPS	set	15079
   195  0000                     _RC6PPS	set	14870
   196  0000                     _INLVLE	set	14980
   197  0000                     _INLVLC	set	14948
   198  0000                     _INLVLB	set	14932
   199  0000                     _INLVLA	set	14916
   200  0000                     _SLRCONC	set	14947
   201  0000                     _SLRCONB	set	14931
   202  0000                     _SLRCONA	set	14915
   203  0000                     _ODCONC	set	14946
   204  0000                     _ODCONB	set	14930
   205  0000                     _ODCONA	set	14914
   206  0000                     _WPUC	set	14945
   207  0000                     _WPUA	set	14913
   208  0000                     _WPUB	set	14929
   209  0000                     _WPUE	set	14977
   210  0000                     _ANSELA	set	14912
   211  0000                     _ANSELB	set	14928
   212  0000                     _ANSELC	set	14944
   213  0000                     _U1TXB	set	15850
   214  0000                     _U1RXB	set	15848
   215  0000                     _U1CON0bits	set	15858
   216  0000                     _U1ERRIE	set	15866
   217  0000                     _U1ERRIR	set	15865
   218  0000                     _U1UIR	set	15864
   219  0000                     _U1FIFO	set	15863
   220  0000                     _U1BRGH	set	15862
   221  0000                     _U1BRGL	set	15861
   222  0000                     _U1CON2	set	15860
   223  0000                     _U1CON1	set	15859
   224  0000                     _U1CON0	set	15858
   225  0000                     _U1P3H	set	15857
   226  0000                     _U1P3L	set	15856
   227  0000                     _U1P2H	set	15855
   228  0000                     _U1P2L	set	15854
   229  0000                     _U1P1H	set	15853
   230  0000                     _U1P1L	set	15852
   231  0000                     _U1ERRIRbits	set	15865
   232  0000                     _U1UIRbits	set	15864
   233  0000                     _TBLPTR	set	16374
   234  0000                     _TRISC	set	16324
   235  0000                     _TRISB	set	16323
   236  0000                     _TRISA	set	16322
   237  0000                     _LATC	set	16316
   238  0000                     _LATB	set	16315
   239  0000                     _LATA	set	16314
   240  0000                     _INTCON0bits	set	16338
   241  0000                     _LATBbits	set	16315
   242  0000                     _TBLPTRL	set	16374
   243  0000                     _TBLPTRH	set	16375
   244  0000                     _TBLPTRU	set	16376
   245  0000                     _TABLAT	set	16373
   246  0000                     _BSR	set	16352
   247  0000                     _STKPTR	set	16380
   248                           
   249                           ; #config settings
   250                           
   251                           	psect	cinit
   252  00F8C6                     __pcinit:
   253                           	callstack 0
   254  00F8C6                     start_initialization:
   255                           	callstack 0
   256  00F8C6                     __initialization:
   257                           	callstack 0
   258                           
   259                           ; Clear objects allocated to BANK0 (137 bytes)
   260  00F8C6  EE00  F060         	lfsr	0,__pbssBANK0
   261  00F8CA  0E89               	movlw	137
   262  00F8CC                     clear_0:
   263  00F8CC  6AEE               	clrf	postinc0,c
   264  00F8CE  06E8               	decf	wreg,f,c
   265  00F8D0  E1FD               	bnz	clear_0
   266                           
   267                           ; Clear objects allocated to COMRAM (8 bytes)
   268  00F8D2  EE00  F011         	lfsr	0,__pbssCOMRAM
   269  00F8D6  0E08               	movlw	8
   270  00F8D8                     clear_1:
   271  00F8D8  6AEE               	clrf	postinc0,c
   272  00F8DA  06E8               	decf	wreg,f,c
   273  00F8DC  E1FD               	bnz	clear_1
   274  00F8DE                     end_of_initialization:
   275                           	callstack 0
   276  00F8DE                     __end_of__initialization:
   277                           	callstack 0
   278  00F8DE  0E00               	movlw	low (__Lmediumconst shr (0+16))
   279  00F8E0  6EF8               	movwf	tblptru,c
   280  00F8E2  0100               	movlb	0
   281  00F8E4  EF9C  F07C         	goto	_main	;jump to C main() function
   282                           
   283                           	psect	bssCOMRAM
   284  000011                     __pbssCOMRAM:
   285                           	callstack 0
   286  000011                     _counter:
   287                           	callstack 0
   288  000011                     	ds	2
   289  000013                     _check_sum:
   290                           	callstack 0
   291  000013                     	ds	2
   292  000015                     _uart1RxLastError:
   293                           	callstack 0
   294  000015                     	ds	1
   295  000016                     _reset_pending:
   296                           	callstack 0
   297  000016                     	ds	1
   298  000017                     _tx_data:
   299                           	callstack 0
   300  000017                     	ds	1
   301  000018                     _rx_data:
   302                           	callstack 0
   303  000018                     	ds	1
   304                           
   305                           	psect	bssBANK0
   306  000060                     __pbssBANK0:
   307                           	callstack 0
   308  000060                     _frame:
   309                           	callstack 0
   310  000060                     	ds	137
   311                           
   312                           	psect	cstackCOMRAM
   313  000002                     __pcstackCOMRAM:
   314                           	callstack 0
   315  000002                     ??_Write_Flash:
   316  000002                     ??_Read_Config:
   317  000002                     ??_Write_Config:
   318  000002                     Get_Version_Data@i:
   319                           	callstack 0
   320  000002                     _UART1_is_tx_ready$727:
   321                           	callstack 0
   322  000002                     UART1_Write@txData:
   323                           	callstack 0
   324  000002                     Erase_Flash@i:
   325                           	callstack 0
   326  000002                     Calc_Checksum@length:
   327                           	callstack 0
   328  000002                     UART1_SetFramingErrorHandler@interruptHandler:
   329                           	callstack 0
   330  000002                     UART1_SetOverrunErrorHandler@interruptHandler:
   331                           	callstack 0
   332  000002                     UART1_SetErrorHandler@interruptHandler:
   333                           	callstack 0
   334                           
   335                           ; 2 bytes @ 0x0
   336  000002                     	ds	2
   337  000004                     Read_Config@i:
   338                           	callstack 0
   339  000004                     Write_Config@i:
   340                           	callstack 0
   341  000004                     Calc_Checksum@i:
   342                           	callstack 0
   343                           
   344                           ; 2 bytes @ 0x2
   345  000004                     	ds	2
   346  000006                     Write_Flash@i:
   347                           	callstack 0
   348                           
   349                           ; 2 bytes @ 0x4
   350  000006                     	ds	2
   351  000008                     ??_ProcessBootBuffer:
   352                           
   353                           ; 1 bytes @ 0x6
   354  000008                     	ds	2
   355  00000A                     ProcessBootBuffer@len:
   356                           	callstack 0
   357                           
   358                           ; 1 bytes @ 0x8
   359  00000A                     	ds	1
   360  00000B                     ??_Run_Bootloader:
   361                           
   362                           ; 1 bytes @ 0x9
   363  00000B                     	ds	2
   364  00000D                     Run_Bootloader@ch:
   365                           	callstack 0
   366                           
   367                           ; 1 bytes @ 0xB
   368  00000D                     	ds	1
   369  00000E                     Run_Bootloader@msg_length:
   370                           	callstack 0
   371                           
   372                           ; 1 bytes @ 0xC
   373  00000E                     	ds	1
   374  00000F                     Run_Bootloader@index:
   375                           	callstack 0
   376                           
   377                           ; 1 bytes @ 0xD
   378  00000F                     	ds	1
   379  000010                     ??_main:
   380                           
   381                           ; 1 bytes @ 0xE
   382  000010                     	ds	1
   383                           
   384 ;; *************** function _SYSTEM_Initialize *****************
   385 ;; Defined at:
   386 ;;		line 50 in file "mcc_generated_files/mcc.c"
   387 ;; Parameters:    Size  Location     Type
   388 ;;		None
   389 ;; Auto vars:     Size  Location     Type
   390 ;;		None
   391 ;; Return value:  Size  Location     Type
   392 ;;                  1    wreg      void 
   393 ;; Registers used:
   394 ;;		wreg, status,2, status,0, cstack
   395 ;; Tracked objects:
   396 ;;		On entry : 0/0
   397 ;;		On exit  : 0/0
   398 ;;		Unchanged: 0/0
   399 ;; Data sizes:     COMRAM   BANK0   BANK1   BANK2   BANK3   BANK4   BANK5   BANK6   BANK7   BANK8   BANK9  BANK10  BANK1
      +1  BANK12  BANK13  BANK14  BANK15
   400 ;;      Params:         0       0       0       0       0       0       0       0       0       0       0       0       
      +0       0       0       0       0
   401 ;;      Locals:         0       0       0       0       0       0       0       0       0       0       0       0       
      +0       0       0       0       0
   402 ;;      Temps:          0       0       0       0       0       0       0       0       0       0       0       0       
      +0       0       0       0       0
   403 ;;      Totals:         0       0       0       0       0       0       0       0       0       0       0       0       
      +0       0       0       0       0
   404 ;;Total ram usage:        0 bytes
   405 ;; Hardware stack levels used:    1
   406 ;; Hardware stack levels required when called:    2
   407 ;; This function calls:
   408 ;;		_OSCILLATOR_Initialize
   409 ;;		_PIN_MANAGER_Initialize
   410 ;;		_PMD_Initialize
   411 ;;		_UART1_Initialize
   412 ;; This function is called by:
   413 ;;		_main
   414 ;; This function uses a non-reentrant model
   415 ;;
   416                           
   417                           	psect	text1
   418  00F828                     __ptext1:
   419                           	callstack 0
   420  00F828                     _SYSTEM_Initialize:
   421                           	callstack 28
   422  00F828                     
   423                           ;mcc_generated_files/mcc.c: 52:     PMD_Initialize();
   424  00F828  EC74  F07C         	call	_PMD_Initialize	;wreg free
   425                           
   426                           ;mcc_generated_files/mcc.c: 53:     PIN_MANAGER_Initialize();
   427  00F82C  ECB6  F07C         	call	_PIN_MANAGER_Initialize	;wreg free
   428                           
   429                           ;mcc_generated_files/mcc.c: 54:     OSCILLATOR_Initialize();
   430  00F830  EC3D  F07C         	call	_OSCILLATOR_Initialize	;wreg free
   431  00F834                     
   432                           ;mcc_generated_files/mcc.c: 55:     UART1_Initialize();
   433  00F834  EC0E  F07D         	call	_UART1_Initialize	;wreg free
   434  00F838  0012               	return		;funcret
   435  00F83A                     __end_of_SYSTEM_Initialize:
   436                           	callstack 0
   437                           
   438 ;; *************** function _UART1_Initialize *****************
   439 ;; Defined at:
   440 ;;		line 66 in file "mcc_generated_files/uart1.c"
   441 ;; Parameters:    Size  Location     Type
   442 ;;		None
   443 ;; Auto vars:     Size  Location     Type
   444 ;;		None
   445 ;; Return value:  Size  Location     Type
   446 ;;                  1    wreg      void 
   447 ;; Registers used:
   448 ;;		wreg, status,2, status,0, cstack
   449 ;; Tracked objects:
   450 ;;		On entry : 0/0
   451 ;;		On exit  : 0/0
   452 ;;		Unchanged: 0/0
   453 ;; Data sizes:     COMRAM   BANK0   BANK1   BANK2   BANK3   BANK4   BANK5   BANK6   BANK7   BANK8   BANK9  BANK10  BANK1
      +1  BANK12  BANK13  BANK14  BANK15
   454 ;;      Params:         0       0       0       0       0       0       0       0       0       0       0       0       
      +0       0       0       0       0
   455 ;;      Locals:         0       0       0       0       0       0       0       0       0       0       0       0       
      +0       0       0       0       0
   456 ;;      Temps:          0       0       0       0       0       0       0       0       0       0       0       0       
      +0       0       0       0       0
   457 ;;      Totals:         0       0       0       0       0       0       0       0       0       0       0       0       
      +0       0       0       0       0
   458 ;;Total ram usage:        0 bytes
   459 ;; Hardware stack levels used:    1
   460 ;; Hardware stack levels required when called:    1
   461 ;; This function calls:
   462 ;;		_UART1_SetErrorHandler
   463 ;;		_UART1_SetFramingErrorHandler
   464 ;;		_UART1_SetOverrunErrorHandler
   465 ;; This function is called by:
   466 ;;		_SYSTEM_Initialize
   467 ;; This function uses a non-reentrant model
   468 ;;
   469                           
   470                           	psect	text2
   471  00FA1C                     __ptext2:
   472                           	callstack 0
   473  00FA1C                     _UART1_Initialize:
   474                           	callstack 28
   475  00FA1C                     
   476                           ;mcc_generated_files/uart1.c: 73:     U1P1L = 0x00;
   477  00FA1C  0E00               	movlw	0
   478  00FA1E  013D               	movlb	61	; () banked
   479  00FA20  6FEC               	movwf	236,b	;volatile
   480                           
   481                           ;mcc_generated_files/uart1.c: 76:     U1P1H = 0x00;
   482  00FA22  0E00               	movlw	0
   483  00FA24  6FED               	movwf	237,b	;volatile
   484                           
   485                           ;mcc_generated_files/uart1.c: 79:     U1P2L = 0x00;
   486  00FA26  0E00               	movlw	0
   487  00FA28  6FEE               	movwf	238,b	;volatile
   488                           
   489                           ;mcc_generated_files/uart1.c: 82:     U1P2H = 0x00;
   490  00FA2A  0E00               	movlw	0
   491  00FA2C  6FEF               	movwf	239,b	;volatile
   492                           
   493                           ;mcc_generated_files/uart1.c: 85:     U1P3L = 0x00;
   494  00FA2E  0E00               	movlw	0
   495  00FA30  6FF0               	movwf	240,b	;volatile
   496                           
   497                           ;mcc_generated_files/uart1.c: 88:     U1P3H = 0x00;
   498  00FA32  0E00               	movlw	0
   499  00FA34  6FF1               	movwf	241,b	;volatile
   500                           
   501                           ;mcc_generated_files/uart1.c: 91:     U1CON0 = 0xF0;
   502  00FA36  0EF0               	movlw	240
   503  00FA38  6FF2               	movwf	242,b	;volatile
   504                           
   505                           ;mcc_generated_files/uart1.c: 94:     U1CON1 = 0x80;
   506  00FA3A  0E80               	movlw	128
   507  00FA3C  6FF3               	movwf	243,b	;volatile
   508                           
   509                           ;mcc_generated_files/uart1.c: 97:     U1CON2 = 0x00;
   510  00FA3E  0E00               	movlw	0
   511  00FA40  6FF4               	movwf	244,b	;volatile
   512                           
   513                           ;mcc_generated_files/uart1.c: 100:     U1BRGL = 0xA0;
   514  00FA42  0EA0               	movlw	160
   515  00FA44  6FF5               	movwf	245,b	;volatile
   516                           
   517                           ;mcc_generated_files/uart1.c: 103:     U1BRGH = 0x01;
   518  00FA46  0E01               	movlw	1
   519  00FA48  6FF6               	movwf	246,b	;volatile
   520                           
   521                           ;mcc_generated_files/uart1.c: 106:     U1FIFO = 0x00;
   522  00FA4A  0E00               	movlw	0
   523  00FA4C  6FF7               	movwf	247,b	;volatile
   524                           
   525                           ;mcc_generated_files/uart1.c: 109:     U1UIR = 0x00;
   526  00FA4E  0E00               	movlw	0
   527  00FA50  6FF8               	movwf	248,b	;volatile
   528                           
   529                           ;mcc_generated_files/uart1.c: 112:     U1ERRIR = 0x00;
   530  00FA52  0E00               	movlw	0
   531  00FA54  6FF9               	movwf	249,b	;volatile
   532                           
   533                           ;mcc_generated_files/uart1.c: 115:     U1ERRIE = 0x00;
   534  00FA56  0E00               	movlw	0
   535  00FA58  6FFA               	movwf	250,b	;volatile
   536  00FA5A                     
   537                           ; BSR set to: 61
   538                           ;mcc_generated_files/uart1.c: 118:     UART1_SetFramingErrorHandler(UART1_DefaultFraming
      +                          ErrorHandler);
   539  00FA5A  0EEC               	movlw	low _UART1_DefaultFramingErrorHandler
   540  00FA5C  6E02               	movwf	UART1_SetFramingErrorHandler@interruptHandler^0,c
   541  00FA5E  0EF7               	movlw	high _UART1_DefaultFramingErrorHandler
   542  00FA60  6E03               	movwf	(UART1_SetFramingErrorHandler@interruptHandler+1)^0,c
   543  00FA62  EC01  F07C         	call	_UART1_SetFramingErrorHandler	;wreg free
   544  00FA66                     
   545                           ;mcc_generated_files/uart1.c: 119:     UART1_SetOverrunErrorHandler(UART1_DefaultOverrun
      +                          ErrorHandler);
   546  00FA66  0EEE               	movlw	low _UART1_DefaultOverrunErrorHandler
   547  00FA68  6E02               	movwf	UART1_SetOverrunErrorHandler@interruptHandler^0,c
   548  00FA6A  0EF7               	movlw	high _UART1_DefaultOverrunErrorHandler
   549  00FA6C  6E03               	movwf	(UART1_SetOverrunErrorHandler@interruptHandler+1)^0,c
   550  00FA6E  EC06  F07C         	call	_UART1_SetOverrunErrorHandler	;wreg free
   551  00FA72                     
   552                           ;mcc_generated_files/uart1.c: 120:     UART1_SetErrorHandler(UART1_DefaultErrorHandler);
   553  00FA72  0EEA               	movlw	low _UART1_DefaultErrorHandler
   554  00FA74  6E02               	movwf	UART1_SetErrorHandler@interruptHandler^0,c
   555  00FA76  0EF7               	movlw	high _UART1_DefaultErrorHandler
   556  00FA78  6E03               	movwf	(UART1_SetErrorHandler@interruptHandler+1)^0,c
   557  00FA7A  ECFC  F07B         	call	_UART1_SetErrorHandler	;wreg free
   558  00FA7E                     
   559                           ;mcc_generated_files/uart1.c: 122:     uart1RxLastError.status = 0;
   560  00FA7E  0E00               	movlw	0
   561  00FA80  6E15               	movwf	_uart1RxLastError^0,c	;volatile
   562  00FA82  0012               	return		;funcret
   563  00FA84                     __end_of_UART1_Initialize:
   564                           	callstack 0
   565                           
   566 ;; *************** function _UART1_SetOverrunErrorHandler *****************
   567 ;; Defined at:
   568 ;;		line 194 in file "mcc_generated_files/uart1.c"
   569 ;; Parameters:    Size  Location     Type
   570 ;;  interruptHan    2    0[COMRAM] PTR FTN()void 
   571 ;;		 -> UART1_DefaultOverrunErrorHandler(1), 
   572 ;; Auto vars:     Size  Location     Type
   573 ;;		None
   574 ;; Return value:  Size  Location     Type
   575 ;;                  1    wreg      void 
   576 ;; Registers used:
   577 ;;		wreg, status,2, status,0
   578 ;; Tracked objects:
   579 ;;		On entry : 0/0
   580 ;;		On exit  : 0/0
   581 ;;		Unchanged: 0/0
   582 ;; Data sizes:     COMRAM   BANK0   BANK1   BANK2   BANK3   BANK4   BANK5   BANK6   BANK7   BANK8   BANK9  BANK10  BANK1
      +1  BANK12  BANK13  BANK14  BANK15
   583 ;;      Params:         2       0       0       0       0       0       0       0       0       0       0       0       
      +0       0       0       0       0
   584 ;;      Locals:         0       0       0       0       0       0       0       0       0       0       0       0       
      +0       0       0       0       0
   585 ;;      Temps:          0       0       0       0       0       0       0       0       0       0       0       0       
      +0       0       0       0       0
   586 ;;      Totals:         2       0       0       0       0       0       0       0       0       0       0       0       
      +0       0       0       0       0
   587 ;;Total ram usage:        2 bytes
   588 ;; Hardware stack levels used:    1
   589 ;; This function calls:
   590 ;;		Nothing
   591 ;; This function is called by:
   592 ;;		_UART1_Initialize
   593 ;; This function uses a non-reentrant model
   594 ;;
   595                           
   596                           	psect	text3
   597  00F80C                     __ptext3:
   598                           	callstack 0
   599  00F80C                     _UART1_SetOverrunErrorHandler:
   600                           	callstack 28
   601  00F80C                     
   602                           ;mcc_generated_files/uart1.c: 195:     UART1_OverrunErrorHandler = interruptHandler;
   603  00F80C  C002  F01B         	movff	UART1_SetOverrunErrorHandler@interruptHandler,_UART1_OverrunErrorHandler
   604  00F810  C003  F01C         	movff	UART1_SetOverrunErrorHandler@interruptHandler+1,_UART1_OverrunErrorHandler+1
   605  00F814  0012               	return		;funcret
   606  00F816                     __end_of_UART1_SetOverrunErrorHandler:
   607                           	callstack 0
   608                           
   609 ;; *************** function _UART1_SetFramingErrorHandler *****************
   610 ;; Defined at:
   611 ;;		line 190 in file "mcc_generated_files/uart1.c"
   612 ;; Parameters:    Size  Location     Type
   613 ;;  interruptHan    2    0[COMRAM] PTR FTN()void 
   614 ;;		 -> UART1_DefaultFramingErrorHandler(1), 
   615 ;; Auto vars:     Size  Location     Type
   616 ;;		None
   617 ;; Return value:  Size  Location     Type
   618 ;;                  1    wreg      void 
   619 ;; Registers used:
   620 ;;		wreg, status,2, status,0
   621 ;; Tracked objects:
   622 ;;		On entry : 0/0
   623 ;;		On exit  : 0/0
   624 ;;		Unchanged: 0/0
   625 ;; Data sizes:     COMRAM   BANK0   BANK1   BANK2   BANK3   BANK4   BANK5   BANK6   BANK7   BANK8   BANK9  BANK10  BANK1
      +1  BANK12  BANK13  BANK14  BANK15
   626 ;;      Params:         2       0       0       0       0       0       0       0       0       0       0       0       
      +0       0       0       0       0
   627 ;;      Locals:         0       0       0       0       0       0       0       0       0       0       0       0       
      +0       0       0       0       0
   628 ;;      Temps:          0       0       0       0       0       0       0       0       0       0       0       0       
      +0       0       0       0       0
   629 ;;      Totals:         2       0       0       0       0       0       0       0       0       0       0       0       
      +0       0       0       0       0
   630 ;;Total ram usage:        2 bytes
   631 ;; Hardware stack levels used:    1
   632 ;; This function calls:
   633 ;;		Nothing
   634 ;; This function is called by:
   635 ;;		_UART1_Initialize
   636 ;; This function uses a non-reentrant model
   637 ;;
   638                           
   639                           	psect	text4
   640  00F802                     __ptext4:
   641                           	callstack 0
   642  00F802                     _UART1_SetFramingErrorHandler:
   643                           	callstack 28
   644  00F802                     
   645                           ;mcc_generated_files/uart1.c: 191:     UART1_FramingErrorHandler = interruptHandler;
   646  00F802  C002  F01D         	movff	UART1_SetFramingErrorHandler@interruptHandler,_UART1_FramingErrorHandler
   647  00F806  C003  F01E         	movff	UART1_SetFramingErrorHandler@interruptHandler+1,_UART1_FramingErrorHandler+1
   648  00F80A  0012               	return		;funcret
   649  00F80C                     __end_of_UART1_SetFramingErrorHandler:
   650                           	callstack 0
   651                           
   652 ;; *************** function _UART1_SetErrorHandler *****************
   653 ;; Defined at:
   654 ;;		line 198 in file "mcc_generated_files/uart1.c"
   655 ;; Parameters:    Size  Location     Type
   656 ;;  interruptHan    2    0[COMRAM] PTR FTN()void 
   657 ;;		 -> UART1_DefaultErrorHandler(1), 
   658 ;; Auto vars:     Size  Location     Type
   659 ;;		None
   660 ;; Return value:  Size  Location     Type
   661 ;;                  1    wreg      void 
   662 ;; Registers used:
   663 ;;		wreg, status,2, status,0
   664 ;; Tracked objects:
   665 ;;		On entry : 0/0
   666 ;;		On exit  : 0/0
   667 ;;		Unchanged: 0/0
   668 ;; Data sizes:     COMRAM   BANK0   BANK1   BANK2   BANK3   BANK4   BANK5   BANK6   BANK7   BANK8   BANK9  BANK10  BANK1
      +1  BANK12  BANK13  BANK14  BANK15
   669 ;;      Params:         2       0       0       0       0       0       0       0       0       0       0       0       
      +0       0       0       0       0
   670 ;;      Locals:         0       0       0       0       0       0       0       0       0       0       0       0       
      +0       0       0       0       0
   671 ;;      Temps:          0       0       0       0       0       0       0       0       0       0       0       0       
      +0       0       0       0       0
   672 ;;      Totals:         2       0       0       0       0       0       0       0       0       0       0       0       
      +0       0       0       0       0
   673 ;;Total ram usage:        2 bytes
   674 ;; Hardware stack levels used:    1
   675 ;; This function calls:
   676 ;;		Nothing
   677 ;; This function is called by:
   678 ;;		_UART1_Initialize
   679 ;; This function uses a non-reentrant model
   680 ;;
   681                           
   682                           	psect	text5
   683  00F7F8                     __ptext5:
   684                           	callstack 0
   685  00F7F8                     _UART1_SetErrorHandler:
   686                           	callstack 28
   687  00F7F8                     
   688                           ;mcc_generated_files/uart1.c: 199:     UART1_ErrorHandler = interruptHandler;
   689  00F7F8  C002  F019         	movff	UART1_SetErrorHandler@interruptHandler,_UART1_ErrorHandler
   690  00F7FC  C003  F01A         	movff	UART1_SetErrorHandler@interruptHandler+1,_UART1_ErrorHandler+1
   691  00F800  0012               	return		;funcret
   692  00F802                     __end_of_UART1_SetErrorHandler:
   693                           	callstack 0
   694                           
   695 ;; *************** function _PMD_Initialize *****************
   696 ;; Defined at:
   697 ;;		line 73 in file "mcc_generated_files/mcc.c"
   698 ;; Parameters:    Size  Location     Type
   699 ;;		None
   700 ;; Auto vars:     Size  Location     Type
   701 ;;		None
   702 ;; Return value:  Size  Location     Type
   703 ;;                  1    wreg      void 
   704 ;; Registers used:
   705 ;;		wreg, status,2
   706 ;; Tracked objects:
   707 ;;		On entry : 0/0
   708 ;;		On exit  : 0/0
   709 ;;		Unchanged: 0/0
   710 ;; Data sizes:     COMRAM   BANK0   BANK1   BANK2   BANK3   BANK4   BANK5   BANK6   BANK7   BANK8   BANK9  BANK10  BANK1
      +1  BANK12  BANK13  BANK14  BANK15
   711 ;;      Params:         0       0       0       0       0       0       0       0       0       0       0       0       
      +0       0       0       0       0
   712 ;;      Locals:         0       0       0       0       0       0       0       0       0       0       0       0       
      +0       0       0       0       0
   713 ;;      Temps:          0       0       0       0       0       0       0       0       0       0       0       0       
      +0       0       0       0       0
   714 ;;      Totals:         0       0       0       0       0       0       0       0       0       0       0       0       
      +0       0       0       0       0
   715 ;;Total ram usage:        0 bytes
   716 ;; Hardware stack levels used:    1
   717 ;; This function calls:
   718 ;;		Nothing
   719 ;; This function is called by:
   720 ;;		_SYSTEM_Initialize
   721 ;; This function uses a non-reentrant model
   722 ;;
   723                           
   724                           	psect	text6
   725  00F8E8                     __ptext6:
   726                           	callstack 0
   727  00F8E8                     _PMD_Initialize:
   728                           	callstack 29
   729  00F8E8                     
   730                           ;mcc_generated_files/mcc.c: 76:     PMD0 = 0x00;
   731  00F8E8  0E00               	movlw	0
   732  00F8EA  0139               	movlb	57	; () banked
   733  00F8EC  6FC0               	movwf	192,b	;volatile
   734                           
   735                           ;mcc_generated_files/mcc.c: 78:     PMD1 = 0x00;
   736  00F8EE  0E00               	movlw	0
   737  00F8F0  6FC1               	movwf	193,b	;volatile
   738                           
   739                           ;mcc_generated_files/mcc.c: 80:     PMD2 = 0x00;
   740  00F8F2  0E00               	movlw	0
   741  00F8F4  6FC2               	movwf	194,b	;volatile
   742                           
   743                           ;mcc_generated_files/mcc.c: 82:     PMD3 = 0x00;
   744  00F8F6  0E00               	movlw	0
   745  00F8F8  6FC3               	movwf	195,b	;volatile
   746                           
   747                           ;mcc_generated_files/mcc.c: 84:     PMD4 = 0x00;
   748  00F8FA  0E00               	movlw	0
   749  00F8FC  6FC4               	movwf	196,b	;volatile
   750                           
   751                           ;mcc_generated_files/mcc.c: 86:     PMD5 = 0x00;
   752  00F8FE  0E00               	movlw	0
   753  00F900  6FC5               	movwf	197,b	;volatile
   754                           
   755                           ;mcc_generated_files/mcc.c: 88:     PMD6 = 0x00;
   756  00F902  0E00               	movlw	0
   757  00F904  6FC6               	movwf	198,b	;volatile
   758                           
   759                           ;mcc_generated_files/mcc.c: 90:     PMD7 = 0x00;
   760  00F906  0E00               	movlw	0
   761  00F908  6FC7               	movwf	199,b	;volatile
   762  00F90A                     
   763                           ; BSR set to: 57
   764  00F90A  0012               	return		;funcret
   765  00F90C                     __end_of_PMD_Initialize:
   766                           	callstack 0
   767                           
   768 ;; *************** function _PIN_MANAGER_Initialize *****************
   769 ;; Defined at:
   770 ;;		line 55 in file "mcc_generated_files/pin_manager.c"
   771 ;; Parameters:    Size  Location     Type
   772 ;;		None
   773 ;; Auto vars:     Size  Location     Type
   774 ;;		None
   775 ;; Return value:  Size  Location     Type
   776 ;;                  1    wreg      void 
   777 ;; Registers used:
   778 ;;		wreg, status,2
   779 ;; Tracked objects:
   780 ;;		On entry : 0/0
   781 ;;		On exit  : 0/0
   782 ;;		Unchanged: 0/0
   783 ;; Data sizes:     COMRAM   BANK0   BANK1   BANK2   BANK3   BANK4   BANK5   BANK6   BANK7   BANK8   BANK9  BANK10  BANK1
      +1  BANK12  BANK13  BANK14  BANK15
   784 ;;      Params:         0       0       0       0       0       0       0       0       0       0       0       0       
      +0       0       0       0       0
   785 ;;      Locals:         0       0       0       0       0       0       0       0       0       0       0       0       
      +0       0       0       0       0
   786 ;;      Temps:          0       0       0       0       0       0       0       0       0       0       0       0       
      +0       0       0       0       0
   787 ;;      Totals:         0       0       0       0       0       0       0       0       0       0       0       0       
      +0       0       0       0       0
   788 ;;Total ram usage:        0 bytes
   789 ;; Hardware stack levels used:    1
   790 ;; This function calls:
   791 ;;		Nothing
   792 ;; This function is called by:
   793 ;;		_SYSTEM_Initialize
   794 ;; This function uses a non-reentrant model
   795 ;;
   796                           
   797                           	psect	text7
   798  00F96C                     __ptext7:
   799                           	callstack 0
   800  00F96C                     _PIN_MANAGER_Initialize:
   801                           	callstack 29
   802  00F96C                     
   803                           ;mcc_generated_files/pin_manager.c: 60:     LATA = 0x00;
   804  00F96C  0E00               	movlw	0
   805  00F96E  6EBA               	movwf	186,c	;volatile
   806                           
   807                           ;mcc_generated_files/pin_manager.c: 61:     LATB = 0x00;
   808  00F970  0E00               	movlw	0
   809  00F972  6EBB               	movwf	187,c	;volatile
   810                           
   811                           ;mcc_generated_files/pin_manager.c: 62:     LATC = 0x00;
   812  00F974  0E00               	movlw	0
   813  00F976  6EBC               	movwf	188,c	;volatile
   814  00F978                     
   815                           ;mcc_generated_files/pin_manager.c: 67:     TRISA = 0xFF;
   816  00F978  68C2               	setf	194,c	;volatile
   817                           
   818                           ;mcc_generated_files/pin_manager.c: 68:     TRISB = 0xDF;
   819  00F97A  0EDF               	movlw	223
   820  00F97C  6EC3               	movwf	195,c	;volatile
   821                           
   822                           ;mcc_generated_files/pin_manager.c: 69:     TRISC = 0xBF;
   823  00F97E  0EBF               	movlw	191
   824  00F980  6EC4               	movwf	196,c	;volatile
   825                           
   826                           ;mcc_generated_files/pin_manager.c: 74:     ANSELC = 0x7F;
   827  00F982  0E7F               	movlw	127
   828  00F984  013A               	movlb	58	; () banked
   829  00F986  6F60               	movwf	96,b	;volatile
   830  00F988                     
   831                           ; BSR set to: 58
   832                           ;mcc_generated_files/pin_manager.c: 75:     ANSELB = 0xFF;
   833  00F988  6950               	setf	80,b	;volatile
   834  00F98A                     
   835                           ; BSR set to: 58
   836                           ;mcc_generated_files/pin_manager.c: 76:     ANSELA = 0xFF;
   837  00F98A  6940               	setf	64,b	;volatile
   838                           
   839                           ;mcc_generated_files/pin_manager.c: 81:     WPUE = 0x00;
   840  00F98C  0E00               	movlw	0
   841  00F98E  6F81               	movwf	129,b	;volatile
   842                           
   843                           ;mcc_generated_files/pin_manager.c: 82:     WPUB = 0x00;
   844  00F990  0E00               	movlw	0
   845  00F992  6F51               	movwf	81,b	;volatile
   846                           
   847                           ;mcc_generated_files/pin_manager.c: 83:     WPUA = 0x00;
   848  00F994  0E00               	movlw	0
   849  00F996  6F41               	movwf	65,b	;volatile
   850                           
   851                           ;mcc_generated_files/pin_manager.c: 84:     WPUC = 0x00;
   852  00F998  0E00               	movlw	0
   853  00F99A  6F61               	movwf	97,b	;volatile
   854                           
   855                           ;mcc_generated_files/pin_manager.c: 89:     ODCONA = 0x00;
   856  00F99C  0E00               	movlw	0
   857  00F99E  6F42               	movwf	66,b	;volatile
   858                           
   859                           ;mcc_generated_files/pin_manager.c: 90:     ODCONB = 0x00;
   860  00F9A0  0E00               	movlw	0
   861  00F9A2  6F52               	movwf	82,b	;volatile
   862                           
   863                           ;mcc_generated_files/pin_manager.c: 91:     ODCONC = 0x00;
   864  00F9A4  0E00               	movlw	0
   865  00F9A6  6F62               	movwf	98,b	;volatile
   866  00F9A8                     
   867                           ; BSR set to: 58
   868                           ;mcc_generated_files/pin_manager.c: 96:     SLRCONA = 0xFF;
   869  00F9A8  6943               	setf	67,b	;volatile
   870  00F9AA                     
   871                           ; BSR set to: 58
   872                           ;mcc_generated_files/pin_manager.c: 97:     SLRCONB = 0xFF;
   873  00F9AA  6953               	setf	83,b	;volatile
   874  00F9AC                     
   875                           ; BSR set to: 58
   876                           ;mcc_generated_files/pin_manager.c: 98:     SLRCONC = 0xFF;
   877  00F9AC  6963               	setf	99,b	;volatile
   878  00F9AE                     
   879                           ; BSR set to: 58
   880                           ;mcc_generated_files/pin_manager.c: 103:     INLVLA = 0xFF;
   881  00F9AE  6944               	setf	68,b	;volatile
   882  00F9B0                     
   883                           ; BSR set to: 58
   884                           ;mcc_generated_files/pin_manager.c: 104:     INLVLB = 0xFF;
   885  00F9B0  6954               	setf	84,b	;volatile
   886  00F9B2                     
   887                           ; BSR set to: 58
   888                           ;mcc_generated_files/pin_manager.c: 105:     INLVLC = 0xFF;
   889  00F9B2  6964               	setf	100,b	;volatile
   890                           
   891                           ;mcc_generated_files/pin_manager.c: 106:     INLVLE = 0x08;
   892  00F9B4  0E08               	movlw	8
   893  00F9B6  6F84               	movwf	132,b	;volatile
   894                           
   895                           ;mcc_generated_files/pin_manager.c: 115:     RC6PPS = 0x13;
   896  00F9B8  0E13               	movlw	19
   897  00F9BA  6F16               	movwf	22,b	;volatile
   898                           
   899                           ;mcc_generated_files/pin_manager.c: 116:     U1RXPPS = 0x17;
   900  00F9BC  0E17               	movlw	23
   901  00F9BE  6FE7               	movwf	231,b	;volatile
   902  00F9C0                     
   903                           ; BSR set to: 58
   904  00F9C0  0012               	return		;funcret
   905  00F9C2                     __end_of_PIN_MANAGER_Initialize:
   906                           	callstack 0
   907                           
   908 ;; *************** function _OSCILLATOR_Initialize *****************
   909 ;; Defined at:
   910 ;;		line 59 in file "mcc_generated_files/mcc.c"
   911 ;; Parameters:    Size  Location     Type
   912 ;;		None
   913 ;; Auto vars:     Size  Location     Type
   914 ;;		None
   915 ;; Return value:  Size  Location     Type
   916 ;;                  1    wreg      void 
   917 ;; Registers used:
   918 ;;		wreg, status,2
   919 ;; Tracked objects:
   920 ;;		On entry : 0/0
   921 ;;		On exit  : 0/0
   922 ;;		Unchanged: 0/0
   923 ;; Data sizes:     COMRAM   BANK0   BANK1   BANK2   BANK3   BANK4   BANK5   BANK6   BANK7   BANK8   BANK9  BANK10  BANK1
      +1  BANK12  BANK13  BANK14  BANK15
   924 ;;      Params:         0       0       0       0       0       0       0       0       0       0       0       0       
      +0       0       0       0       0
   925 ;;      Locals:         0       0       0       0       0       0       0       0       0       0       0       0       
      +0       0       0       0       0
   926 ;;      Temps:          0       0       0       0       0       0       0       0       0       0       0       0       
      +0       0       0       0       0
   927 ;;      Totals:         0       0       0       0       0       0       0       0       0       0       0       0       
      +0       0       0       0       0
   928 ;;Total ram usage:        0 bytes
   929 ;; Hardware stack levels used:    1
   930 ;; This function calls:
   931 ;;		Nothing
   932 ;; This function is called by:
   933 ;;		_SYSTEM_Initialize
   934 ;; This function uses a non-reentrant model
   935 ;;
   936                           
   937                           	psect	text8
   938  00F87A                     __ptext8:
   939                           	callstack 0
   940  00F87A                     _OSCILLATOR_Initialize:
   941                           	callstack 29
   942  00F87A                     
   943                           ;mcc_generated_files/mcc.c: 62:     OSCCON1 = 0x62;
   944  00F87A  0E62               	movlw	98
   945  00F87C  0139               	movlb	57	; () banked
   946  00F87E  6FD9               	movwf	217,b	;volatile
   947                           
   948                           ;mcc_generated_files/mcc.c: 64:     OSCCON3 = 0x00;
   949  00F880  0E00               	movlw	0
   950  00F882  6FDB               	movwf	219,b	;volatile
   951                           
   952                           ;mcc_generated_files/mcc.c: 66:     OSCEN = 0x00;
   953  00F884  0E00               	movlw	0
   954  00F886  6FDD               	movwf	221,b	;volatile
   955                           
   956                           ;mcc_generated_files/mcc.c: 68:     OSCFRQ = 0x08;
   957  00F888  0E08               	movlw	8
   958  00F88A  6FDF               	movwf	223,b	;volatile
   959                           
   960                           ;mcc_generated_files/mcc.c: 70:     OSCTUNE = 0x00;
   961  00F88C  0E00               	movlw	0
   962  00F88E  6FDE               	movwf	222,b	;volatile
   963  00F890                     
   964                           ; BSR set to: 57
   965  00F890  0012               	return		;funcret
   966  00F892                     __end_of_OSCILLATOR_Initialize:
   967                           	callstack 0
   968                           
   969 ;; *************** function _BOOTLOADER_Initialize *****************
   970 ;; Defined at:
   971 ;;		line 134 in file "mcc_generated_files/pic18f_bootload.c"
   972 ;; Parameters:    Size  Location     Type
   973 ;;		None
   974 ;; Auto vars:     Size  Location     Type
   975 ;;		None
   976 ;; Return value:  Size  Location     Type
   977 ;;                  1    wreg      void 
   978 ;; Registers used:
   979 ;;		wreg, fsr2l, fsr2h, status,2, status,0, pclath, tosl, cstack
   980 ;; Tracked objects:
   981 ;;		On entry : 0/0
   982 ;;		On exit  : 0/0
   983 ;;		Unchanged: 0/0
   984 ;; Data sizes:     COMRAM   BANK0   BANK1   BANK2   BANK3   BANK4   BANK5   BANK6   BANK7   BANK8   BANK9  BANK10  BANK1
      +1  BANK12  BANK13  BANK14  BANK15
   985 ;;      Params:         0       0       0       0       0       0       0       0       0       0       0       0       
      +0       0       0       0       0
   986 ;;      Locals:         0       0       0       0       0       0       0       0       0       0       0       0       
      +0       0       0       0       0
   987 ;;      Temps:          0       0       0       0       0       0       0       0       0       0       0       0       
      +0       0       0       0       0
   988 ;;      Totals:         0       0       0       0       0       0       0       0       0       0       0       0       
      +0       0       0       0       0
   989 ;;Total ram usage:        0 bytes
   990 ;; Hardware stack levels used:    1
   991 ;; Hardware stack levels required when called:    4
   992 ;; This function calls:
   993 ;;		_Run_Bootloader
   994 ;; This function is called by:
   995 ;;		_main
   996 ;; This function uses a non-reentrant model
   997 ;;
   998                           
   999                           	psect	text9
  1000  00F8AC                     __ptext9:
  1001                           	callstack 0
  1002  00F8AC                     _BOOTLOADER_Initialize:
  1003                           	callstack 26
  1004  00F8AC                     
  1005                           ;mcc_generated_files/pic18f_bootload.c: 136:     EE_Key_1 = 0;
  1006  00F8AC  0E00               	movlw	0
  1007  00F8AE  6E00               	movwf	0,c
  1008                           
  1009                           ;mcc_generated_files/pic18f_bootload.c: 137:     EE_Key_2 = 0;
  1010  00F8B0  0E00               	movlw	0
  1011  00F8B2  6E01               	movwf	1,c
  1012  00F8B4                     
  1013                           ;mcc_generated_files/pic18f_bootload.c: 140:         Run_Bootloader ();
  1014  00F8B4  EC63  F07F         	call	_Run_Bootloader	;wreg free
  1015  00F8B8                     
  1016                           ;mcc_generated_files/pic18f_bootload.c: 142:     STKPTR = 0x00;
  1017  00F8B8  0E00               	movlw	0
  1018  00F8BA  6EFC               	movwf	252,c	;volatile
  1019  00F8BC                     
  1020                           ;mcc_generated_files/pic18f_bootload.c: 143:  BSR = 0x00;
  1021  00F8BC  0E00               	movlw	0
  1022  00F8BE  6EE0               	movwf	224,c	;volatile
  1023  00F8C0  EF80 F002          	goto	1280	;# 
  1024  00F8C4  0012               	return		;funcret
  1025  00F8C6                     __end_of_BOOTLOADER_Initialize:
  1026                           	callstack 0
  1027                           
  1028 ;; *************** function _Run_Bootloader *****************
  1029 ;; Defined at:
  1030 ;;		line 59 in file "mcc_generated_files/pic18f_uart.c"
  1031 ;; Parameters:    Size  Location     Type
  1032 ;;		None
  1033 ;; Auto vars:     Size  Location     Type
  1034 ;;  ch              1   11[COMRAM] unsigned char 
  1035 ;;  index           1   13[COMRAM] volatile unsigned char 
  1036 ;;  msg_length      1   12[COMRAM] unsigned char 
  1037 ;; Return value:  Size  Location     Type
  1038 ;;                  1    wreg      void 
  1039 ;; Registers used:
  1040 ;;		wreg, fsr2l, fsr2h, status,2, status,0, pclath, tosl, cstack
  1041 ;; Tracked objects:
  1042 ;;		On entry : 0/0
  1043 ;;		On exit  : 0/0
  1044 ;;		Unchanged: 0/0
  1045 ;; Data sizes:     COMRAM   BANK0   BANK1   BANK2   BANK3   BANK4   BANK5   BANK6   BANK7   BANK8   BANK9  BANK10  BANK1
      +1  BANK12  BANK13  BANK14  BANK15
  1046 ;;      Params:         0       0       0       0       0       0       0       0       0       0       0       0       
      +0       0       0       0       0
  1047 ;;      Locals:         3       0       0       0       0       0       0       0       0       0       0       0       
      +0       0       0       0       0
  1048 ;;      Temps:          2       0       0       0       0       0       0       0       0       0       0       0       
      +0       0       0       0       0
  1049 ;;      Totals:         5       0       0       0       0       0       0       0       0       0       0       0       
      +0       0       0       0       0
  1050 ;;Total ram usage:        5 bytes
  1051 ;; Hardware stack levels used:    1
  1052 ;; Hardware stack levels required when called:    3
  1053 ;; This function calls:
  1054 ;;		_Check_Device_Reset
  1055 ;;		_ProcessBootBuffer
  1056 ;;		_UART1_Read
  1057 ;;		_UART1_Write
  1058 ;;		_UART1_is_rx_ready
  1059 ;;		_UART1_is_tx_ready
  1060 ;; This function is called by:
  1061 ;;		_BOOTLOADER_Initialize
  1062 ;; This function uses a non-reentrant model
  1063 ;;
  1064                           
  1065                           	psect	text10
  1066  00FEC6                     __ptext10:
  1067                           	callstack 0
  1068  00FEC6                     _Run_Bootloader:
  1069                           	callstack 26
  1070  00FEC6                     l205:
  1071  00FEC6  8ABB               	bsf	187,5,c	;volatile
  1072  00FEC8                     l208:
  1073  00FEC8  013D               	movlb	61	; () banked
  1074  00FECA  AFF9               	btfss	249,7,b	;volatile
  1075  00FECC  EF6A  F07F         	goto	u451
  1076  00FED0  EF6C  F07F         	goto	u450
  1077  00FED4                     u451:
  1078  00FED4  EF64  F07F         	goto	l208
  1079  00FED8                     u450:
  1080  00FED8                     
  1081                           ; BSR set to: 61
  1082                           ;mcc_generated_files/pic18f_uart.c: 68:         Check_Device_Reset();
  1083  00FED8  EC1D  F07C         	call	_Check_Device_Reset	;wreg free
  1084  00FEDC                     
  1085                           ;mcc_generated_files/pic18f_uart.c: 72:         index = 0;
  1086  00FEDC  0E00               	movlw	0
  1087  00FEDE  6E0F               	movwf	Run_Bootloader@index^0,c	;volatile
  1088  00FEE0                     
  1089                           ;mcc_generated_files/pic18f_uart.c: 73:         msg_length = 9;
  1090  00FEE0  0E09               	movlw	9
  1091  00FEE2  6E0E               	movwf	Run_Bootloader@msg_length^0,c
  1092                           
  1093                           ;mcc_generated_files/pic18f_uart.c: 74:         uint8_t ch;;mcc_generated_files/pic18f_u
      +                          art.c: 76:         while (index < msg_length)
  1094  00FEE4  EFBA  F07F         	goto	l1679
  1095  00FEE8                     l1659:
  1096                           
  1097                           ;mcc_generated_files/pic18f_uart.c: 77:         {;mcc_generated_files/pic18f_uart.c: 78:
      +                                       if(UART1_is_rx_ready()){
  1098  00FEE8  EC32  F07C         	call	_UART1_is_rx_ready	;wreg free
  1099  00FEEC  0900               	iorlw	0
  1100  00FEEE  B4D8               	btfsc	status,2,c
  1101  00FEF0  EF7C  F07F         	goto	u461
  1102  00FEF4  EF7E  F07F         	goto	u460
  1103  00FEF8                     u461:
  1104  00FEF8  EFB2  F07F         	goto	l1677
  1105  00FEFC                     u460:
  1106  00FEFC                     
  1107                           ;mcc_generated_files/pic18f_uart.c: 79:                 ch = UART1_Read();
  1108  00FEFC  EC46  F07E         	call	_UART1_Read	;wreg free
  1109  00FF00  6E0D               	movwf	Run_Bootloader@ch^0,c
  1110  00FF02                     
  1111                           ;mcc_generated_files/pic18f_uart.c: 80:                 frame.buffer[index++] = ch;
  1112  00FF02  0E60               	movlw	low _frame
  1113  00FF04  240F               	addwf	Run_Bootloader@index^0,w,c	;volatile
  1114  00FF06  6ED9               	movwf	fsr2l,c
  1115  00FF08  6ADA               	clrf	fsr2h,c
  1116  00FF0A  0E00               	movlw	high _frame
  1117  00FF0C  22DA               	addwfc	fsr2h,f,c
  1118  00FF0E  0060  F037  FFDF   	movff	Run_Bootloader@ch,indf2
  1119  00FF14  2A0F               	incf	Run_Bootloader@index^0,f,c	;volatile
  1120  00FF16                     
  1121                           ;mcc_generated_files/pic18f_uart.c: 81:                 if (index == 4)
  1122  00FF16  0E04               	movlw	4
  1123  00FF18  180F               	xorwf	Run_Bootloader@index^0,w,c	;volatile
  1124  00FF1A  A4D8               	btfss	status,2,c
  1125  00FF1C  EF92  F07F         	goto	u471
  1126  00FF20  EF94  F07F         	goto	u470
  1127  00FF24                     u471:
  1128  00FF24  EFB2  F07F         	goto	l1677
  1129  00FF28                     u470:
  1130  00FF28                     
  1131                           ;mcc_generated_files/pic18f_uart.c: 82:                 {;mcc_generated_files/pic18f_uar
      +                          t.c: 83:                     if ((frame.command == 2)
  1132  00FF28  0E02               	movlw	2
  1133  00FF2A  0100               	movlb	0	; () banked
  1134  00FF2C  1960               	xorwf	_frame& (0+255),w,b
  1135  00FF2E  B4D8               	btfsc	status,2,c
  1136  00FF30  EF9C  F07F         	goto	u481
  1137  00FF34  EF9E  F07F         	goto	u480
  1138  00FF38                     u481:
  1139  00FF38  EFB0  F07F         	goto	l1675
  1140  00FF3C                     u480:
  1141  00FF3C                     
  1142                           ; BSR set to: 0
  1143  00FF3C  0E05               	movlw	5
  1144  00FF3E  1960               	xorwf	_frame& (0+255),w,b
  1145  00FF40  B4D8               	btfsc	status,2,c
  1146  00FF42  EFA5  F07F         	goto	u491
  1147  00FF46  EFA7  F07F         	goto	u490
  1148  00FF4A                     u491:
  1149  00FF4A  EFB0  F07F         	goto	l1675
  1150  00FF4E                     u490:
  1151  00FF4E                     
  1152                           ; BSR set to: 0
  1153  00FF4E  0E07               	movlw	7
  1154  00FF50  1960               	xorwf	_frame& (0+255),w,b
  1155  00FF52  A4D8               	btfss	status,2,c
  1156  00FF54  EFAE  F07F         	goto	u501
  1157  00FF58  EFB0  F07F         	goto	u500
  1158  00FF5C                     u501:
  1159  00FF5C  EFB2  F07F         	goto	l1677
  1160  00FF60                     u500:
  1161  00FF60                     l1675:
  1162                           
  1163                           ; BSR set to: 0
  1164                           ;mcc_generated_files/pic18f_uart.c: 86:                     {;mcc_generated_files/pic18f
      +                          _uart.c: 87:                         msg_length += frame.data_length;
  1165  00FF60  5161               	movf	(_frame+1)& (0+255),w,b
  1166  00FF62  260E               	addwf	Run_Bootloader@msg_length^0,f,c
  1167  00FF64                     l1677:
  1168                           
  1169                           ;mcc_generated_files/pic18f_uart.c: 91:             _delay((unsigned long)((5)*(16000000
      +                          /4000.0)));
  1170  00FF64  0E1A               	movlw	26
  1171  00FF66  6E0B               	movwf	??_Run_Bootloader^0,c
  1172  00FF68  0EF8               	movlw	248
  1173  00FF6A                     u567:
  1174  00FF6A  2EE8               	decfsz	wreg,f,c
  1175  00FF6C  D7FE               	bra	u567
  1176  00FF6E  2E0B               	decfsz	??_Run_Bootloader^0,f,c
  1177  00FF70  D7FC               	bra	u567
  1178  00FF72  D000               	nop2	
  1179  00FF74                     l1679:
  1180                           
  1181                           ;mcc_generated_files/pic18f_uart.c: 76:         while (index < msg_length)
  1182  00FF74  500E               	movf	Run_Bootloader@msg_length^0,w,c
  1183  00FF76  5C0F               	subwf	Run_Bootloader@index^0,w,c	;volatile
  1184  00FF78  A0D8               	btfss	status,0,c
  1185  00FF7A  EFC1  F07F         	goto	u511
  1186  00FF7E  EFC3  F07F         	goto	u510
  1187  00FF82                     u511:
  1188  00FF82  EF74  F07F         	goto	l1659
  1189  00FF86                     u510:
  1190  00FF86  9ABB               	bcf	187,5,c	;volatile
  1191  00FF88                     
  1192                           ;mcc_generated_files/pic18f_uart.c: 95:         _delay((unsigned long)((1000)*(16000000/
      +                          4000.0)));
  1193  00FF88  0E15               	movlw	21
  1194  00FF8A  6E0C               	movwf	(??_Run_Bootloader+1)^0,c
  1195  00FF8C  0E4B               	movlw	75
  1196  00FF8E  6E0B               	movwf	??_Run_Bootloader^0,c
  1197  00FF90  0EBE               	movlw	190
  1198  00FF92                     u577:
  1199  00FF92  2EE8               	decfsz	wreg,f,c
  1200  00FF94  D7FE               	bra	u577
  1201  00FF96  2E0B               	decfsz	??_Run_Bootloader^0,f,c
  1202  00FF98  D7FC               	bra	u577
  1203  00FF9A  2E0C               	decfsz	(??_Run_Bootloader+1)^0,f,c
  1204  00FF9C  D7FA               	bra	u577
  1205  00FF9E  D000               	nop2	
  1206  00FFA0                     
  1207                           ;mcc_generated_files/pic18f_uart.c: 97:         msg_length = ProcessBootBuffer();
  1208  00FFA0  EC94  F07E         	call	_ProcessBootBuffer	;wreg free
  1209  00FFA4  6E0E               	movwf	Run_Bootloader@msg_length^0,c
  1210  00FFA6                     
  1211                           ;mcc_generated_files/pic18f_uart.c: 103:         index = 0;
  1212  00FFA6  0E00               	movlw	0
  1213  00FFA8  6E0F               	movwf	Run_Bootloader@index^0,c	;volatile
  1214                           
  1215                           ;mcc_generated_files/pic18f_uart.c: 104:         while (index < msg_length)
  1216  00FFAA  EFF2  F07F         	goto	l1695
  1217  00FFAE                     l1687:
  1218                           
  1219                           ;mcc_generated_files/pic18f_uart.c: 105:         {;mcc_generated_files/pic18f_uart.c: 10
      +                          6:             if(UART1_is_tx_ready()){
  1220  00FFAE  EC86  F07C         	call	_UART1_is_tx_ready	;wreg free
  1221  00FFB2  0900               	iorlw	0
  1222  00FFB4  B4D8               	btfsc	status,2,c
  1223  00FFB6  EFDF  F07F         	goto	u521
  1224  00FFBA  EFE1  F07F         	goto	u520
  1225  00FFBE                     u521:
  1226  00FFBE  EFEB  F07F         	goto	l1693
  1227  00FFC2                     u520:
  1228  00FFC2                     
  1229                           ;mcc_generated_files/pic18f_uart.c: 107:                 UART1_Write(frame.buffer[index+
      +                          +]);
  1230  00FFC2  0E60               	movlw	low _frame
  1231  00FFC4  240F               	addwf	Run_Bootloader@index^0,w,c	;volatile
  1232  00FFC6  6ED9               	movwf	fsr2l,c
  1233  00FFC8  6ADA               	clrf	fsr2h,c
  1234  00FFCA  0E00               	movlw	high _frame
  1235  00FFCC  22DA               	addwfc	fsr2h,f,c
  1236  00FFCE  50DF               	movf	indf2,w,c
  1237  00FFD0  EC49  F07C         	call	_UART1_Write
  1238  00FFD4  2A0F               	incf	Run_Bootloader@index^0,f,c	;volatile
  1239  00FFD6                     l1693:
  1240                           
  1241                           ;mcc_generated_files/pic18f_uart.c: 109:             _delay((unsigned long)((10)*(160000
      +                          00/4000.0)));
  1242  00FFD6  0E34               	movlw	52
  1243  00FFD8  6E0B               	movwf	??_Run_Bootloader^0,c
  1244  00FFDA  0EF2               	movlw	242
  1245  00FFDC                     u587:
  1246  00FFDC  2EE8               	decfsz	wreg,f,c
  1247  00FFDE  D7FE               	bra	u587
  1248  00FFE0  2E0B               	decfsz	??_Run_Bootloader^0,f,c
  1249  00FFE2  D7FC               	bra	u587
  1250  00FFE4                     l1695:
  1251                           
  1252                           ;mcc_generated_files/pic18f_uart.c: 104:         while (index < msg_length)
  1253  00FFE4  500E               	movf	Run_Bootloader@msg_length^0,w,c
  1254  00FFE6  5C0F               	subwf	Run_Bootloader@index^0,w,c	;volatile
  1255  00FFE8  A0D8               	btfss	status,0,c
  1256  00FFEA  EFF9  F07F         	goto	u531
  1257  00FFEE  EFFB  F07F         	goto	u530
  1258  00FFF2                     u531:
  1259  00FFF2  EFD7  F07F         	goto	l1687
  1260  00FFF6                     u530:
  1261  00FFF6  EF63  F07F         	goto	l205
  1262  00FFFA  0012               	return		;funcret
  1263  00FFFC                     __end_of_Run_Bootloader:
  1264                           	callstack 0
  1265                           
  1266 ;; *************** function _UART1_is_tx_ready *****************
  1267 ;; Defined at:
  1268 ;;		line 131 in file "mcc_generated_files/uart1.c"
  1269 ;; Parameters:    Size  Location     Type
  1270 ;;		None
  1271 ;; Auto vars:     Size  Location     Type
  1272 ;;		None
  1273 ;; Return value:  Size  Location     Type
  1274 ;;                  1    wreg      _Bool 
  1275 ;; Registers used:
  1276 ;;		wreg, status,2
  1277 ;; Tracked objects:
  1278 ;;		On entry : 0/0
  1279 ;;		On exit  : 0/0
  1280 ;;		Unchanged: 0/0
  1281 ;; Data sizes:     COMRAM   BANK0   BANK1   BANK2   BANK3   BANK4   BANK5   BANK6   BANK7   BANK8   BANK9  BANK10  BANK1
      +1  BANK12  BANK13  BANK14  BANK15
  1282 ;;      Params:         0       0       0       0       0       0       0       0       0       0       0       0       
      +0       0       0       0       0
  1283 ;;      Locals:         1       0       0       0       0       0       0       0       0       0       0       0       
      +0       0       0       0       0
  1284 ;;      Temps:          0       0       0       0       0       0       0       0       0       0       0       0       
      +0       0       0       0       0
  1285 ;;      Totals:         1       0       0       0       0       0       0       0       0       0       0       0       
      +0       0       0       0       0
  1286 ;;Total ram usage:        1 bytes
  1287 ;; Hardware stack levels used:    1
  1288 ;; This function calls:
  1289 ;;		Nothing
  1290 ;; This function is called by:
  1291 ;;		_Run_Bootloader
  1292 ;; This function uses a non-reentrant model
  1293 ;;
  1294                           
  1295                           	psect	text11
  1296  00F90C                     __ptext11:
  1297                           	callstack 0
  1298  00F90C                     _UART1_is_tx_ready:
  1299                           	callstack 28
  1300  00F90C                     
  1301                           ;mcc_generated_files/uart1.c: 133:     return (_Bool)(PIR3bits.U1TXIF && U1CON0bits.TXEN
      +                          );
  1302  00F90C  0E00               	movlw	0
  1303  00F90E  6E02               	movwf	_UART1_is_tx_ready$727^0,c
  1304  00F910  0139               	movlb	57	; () banked
  1305  00F912  A9A3               	btfss	163,4,b	;volatile
  1306  00F914  EF8E  F07C         	goto	u431
  1307  00F918  EF90  F07C         	goto	u430
  1308  00F91C                     u431:
  1309  00F91C  EF9A  F07C         	goto	l415
  1310  00F920                     u430:
  1311  00F920                     
  1312                           ; BSR set to: 57
  1313  00F920  013D               	movlb	61	; () banked
  1314  00F922  ABF2               	btfss	242,5,b	;volatile
  1315  00F924  EF96  F07C         	goto	u441
  1316  00F928  EF98  F07C         	goto	u440
  1317  00F92C                     u441:
  1318  00F92C  EF9A  F07C         	goto	l415
  1319  00F930                     u440:
  1320  00F930                     
  1321                           ; BSR set to: 61
  1322  00F930  0E01               	movlw	1
  1323  00F932  6E02               	movwf	_UART1_is_tx_ready$727^0,c
  1324  00F934                     l415:
  1325  00F934  5002               	movf	_UART1_is_tx_ready$727^0,w,c
  1326  00F936  0012               	return		;funcret
  1327  00F938                     __end_of_UART1_is_tx_ready:
  1328                           	callstack 0
  1329                           
  1330 ;; *************** function _UART1_is_rx_ready *****************
  1331 ;; Defined at:
  1332 ;;		line 126 in file "mcc_generated_files/uart1.c"
  1333 ;; Parameters:    Size  Location     Type
  1334 ;;		None
  1335 ;; Auto vars:     Size  Location     Type
  1336 ;;		None
  1337 ;; Return value:  Size  Location     Type
  1338 ;;                  1    wreg      _Bool 
  1339 ;; Registers used:
  1340 ;;		wreg
  1341 ;; Tracked objects:
  1342 ;;		On entry : 0/0
  1343 ;;		On exit  : 0/0
  1344 ;;		Unchanged: 0/0
  1345 ;; Data sizes:     COMRAM   BANK0   BANK1   BANK2   BANK3   BANK4   BANK5   BANK6   BANK7   BANK8   BANK9  BANK10  BANK1
      +1  BANK12  BANK13  BANK14  BANK15
  1346 ;;      Params:         0       0       0       0       0       0       0       0       0       0       0       0       
      +0       0       0       0       0
  1347 ;;      Locals:         0       0       0       0       0       0       0       0       0       0       0       0       
      +0       0       0       0       0
  1348 ;;      Temps:          0       0       0       0       0       0       0       0       0       0       0       0       
      +0       0       0       0       0
  1349 ;;      Totals:         0       0       0       0       0       0       0       0       0       0       0       0       
      +0       0       0       0       0
  1350 ;;Total ram usage:        0 bytes
  1351 ;; Hardware stack levels used:    1
  1352 ;; This function calls:
  1353 ;;		Nothing
  1354 ;; This function is called by:
  1355 ;;		_Run_Bootloader
  1356 ;; This function uses a non-reentrant model
  1357 ;;
  1358                           
  1359                           	psect	text12
  1360  00F864                     __ptext12:
  1361                           	callstack 0
  1362  00F864                     _UART1_is_rx_ready:
  1363                           	callstack 28
  1364  00F864                     
  1365                           ;mcc_generated_files/uart1.c: 128:     return (_Bool)(PIR3bits.U1RXIF);
  1366  00F864  0139               	movlb	57	; () banked
  1367  00F866  B7A3               	btfsc	163,3,b	;volatile
  1368  00F868  EF38  F07C         	goto	u131
  1369  00F86C  EF3B  F07C         	goto	u130
  1370  00F870                     u131:
  1371  00F870  0E01               	movlw	1
  1372  00F872  EF3C  F07C         	goto	u136
  1373  00F876                     u130:
  1374  00F876  0E00               	movlw	0
  1375  00F878                     u136:
  1376  00F878                     
  1377                           ; BSR set to: 57
  1378  00F878  0012               	return		;funcret
  1379  00F87A                     __end_of_UART1_is_rx_ready:
  1380                           	callstack 0
  1381                           
  1382 ;; *************** function _UART1_Write *****************
  1383 ;; Defined at:
  1384 ;;		line 170 in file "mcc_generated_files/uart1.c"
  1385 ;; Parameters:    Size  Location     Type
  1386 ;;  txData          1    wreg     unsigned char 
  1387 ;; Auto vars:     Size  Location     Type
  1388 ;;  txData          1    0[COMRAM] unsigned char 
  1389 ;; Return value:  Size  Location     Type
  1390 ;;                  1    wreg      void 
  1391 ;; Registers used:
  1392 ;;		wreg
  1393 ;; Tracked objects:
  1394 ;;		On entry : 0/0
  1395 ;;		On exit  : 0/0
  1396 ;;		Unchanged: 0/0
  1397 ;; Data sizes:     COMRAM   BANK0   BANK1   BANK2   BANK3   BANK4   BANK5   BANK6   BANK7   BANK8   BANK9  BANK10  BANK1
      +1  BANK12  BANK13  BANK14  BANK15
  1398 ;;      Params:         0       0       0       0       0       0       0       0       0       0       0       0       
      +0       0       0       0       0
  1399 ;;      Locals:         1       0       0       0       0       0       0       0       0       0       0       0       
      +0       0       0       0       0
  1400 ;;      Temps:          0       0       0       0       0       0       0       0       0       0       0       0       
      +0       0       0       0       0
  1401 ;;      Totals:         1       0       0       0       0       0       0       0       0       0       0       0       
      +0       0       0       0       0
  1402 ;;Total ram usage:        1 bytes
  1403 ;; Hardware stack levels used:    1
  1404 ;; This function calls:
  1405 ;;		Nothing
  1406 ;; This function is called by:
  1407 ;;		_Run_Bootloader
  1408 ;; This function uses a non-reentrant model
  1409 ;;
  1410                           
  1411                           	psect	text13
  1412  00F892                     __ptext13:
  1413                           	callstack 0
  1414  00F892                     _UART1_Write:
  1415                           	callstack 28
  1416                           
  1417                           ; BSR set to: 57
  1418                           ;incstack = 0
  1419                           ;UART1_Write@txData stored from wreg
  1420  00F892  6E02               	movwf	UART1_Write@txData^0,c
  1421  00F894                     l434:
  1422                           
  1423                           ;mcc_generated_files/uart1.c: 172:     while(0 == PIR3bits.U1TXIF)
  1424  00F894  0139               	movlb	57	; () banked
  1425  00F896  A9A3               	btfss	163,4,b	;volatile
  1426  00F898  EF50  F07C         	goto	u231
  1427  00F89C  EF52  F07C         	goto	u230
  1428  00F8A0                     u231:
  1429  00F8A0  EF4A  F07C         	goto	l434
  1430  00F8A4                     u230:
  1431  00F8A4                     
  1432                           ; BSR set to: 57
  1433                           ;mcc_generated_files/uart1.c: 176:     U1TXB = txData;
  1434  00F8A4  0060  F00B  FDEA   	movff	UART1_Write@txData,15850	;volatile
  1435  00F8AA                     
  1436                           ; BSR set to: 57
  1437  00F8AA  0012               	return		;funcret
  1438  00F8AC                     __end_of_UART1_Write:
  1439                           	callstack 0
  1440                           
  1441 ;; *************** function _UART1_Read *****************
  1442 ;; Defined at:
  1443 ;;		line 145 in file "mcc_generated_files/uart1.c"
  1444 ;; Parameters:    Size  Location     Type
  1445 ;;		None
  1446 ;; Auto vars:     Size  Location     Type
  1447 ;;		None
  1448 ;; Return value:  Size  Location     Type
  1449 ;;                  1    wreg      unsigned char 
  1450 ;; Registers used:
  1451 ;;		wreg, status,2, pclath, tosl, cstack
  1452 ;; Tracked objects:
  1453 ;;		On entry : 0/0
  1454 ;;		On exit  : 0/0
  1455 ;;		Unchanged: 0/0
  1456 ;; Data sizes:     COMRAM   BANK0   BANK1   BANK2   BANK3   BANK4   BANK5   BANK6   BANK7   BANK8   BANK9  BANK10  BANK1
      +1  BANK12  BANK13  BANK14  BANK15
  1457 ;;      Params:         0       0       0       0       0       0       0       0       0       0       0       0       
      +0       0       0       0       0
  1458 ;;      Locals:         0       0       0       0       0       0       0       0       0       0       0       0       
      +0       0       0       0       0
  1459 ;;      Temps:          0       0       0       0       0       0       0       0       0       0       0       0       
      +0       0       0       0       0
  1460 ;;      Totals:         0       0       0       0       0       0       0       0       0       0       0       0       
      +0       0       0       0       0
  1461 ;;Total ram usage:        0 bytes
  1462 ;; Hardware stack levels used:    1
  1463 ;; Hardware stack levels required when called:    1
  1464 ;; This function calls:
  1465 ;;		Absolute function
  1466 ;;		_UART1_DefaultErrorHandler
  1467 ;;		_UART1_DefaultFramingErrorHandler
  1468 ;;		_UART1_DefaultOverrunErrorHandler
  1469 ;; This function is called by:
  1470 ;;		_Run_Bootloader
  1471 ;; This function uses a non-reentrant model
  1472 ;;
  1473                           
  1474                           	psect	text14
  1475  00FC8C                     __ptext14:
  1476                           	callstack 0
  1477  00FC8C                     _UART1_Read:
  1478                           	callstack 27
  1479  00FC8C                     l425:
  1480                           
  1481                           ;mcc_generated_files/uart1.c: 147:     while(!PIR3bits.U1RXIF)
  1482  00FC8C  0139               	movlb	57	; () banked
  1483  00FC8E  A7A3               	btfss	163,3,b	;volatile
  1484  00FC90  EF4C  F07E         	goto	u141
  1485  00FC94  EF4E  F07E         	goto	u140
  1486  00FC98                     u141:
  1487  00FC98  EF46  F07E         	goto	l425
  1488  00FC9C                     u140:
  1489  00FC9C                     
  1490                           ; BSR set to: 57
  1491                           ;mcc_generated_files/uart1.c: 151:     uart1RxLastError.status = 0;
  1492  00FC9C  0E00               	movlw	0
  1493  00FC9E  6E15               	movwf	_uart1RxLastError^0,c	;volatile
  1494  00FCA0                     
  1495                           ; BSR set to: 57
  1496                           ;mcc_generated_files/uart1.c: 153:     if(U1ERRIRbits.FERIF){
  1497  00FCA0  013D               	movlb	61	; () banked
  1498  00FCA2  A7F9               	btfss	249,3,b	;volatile
  1499  00FCA4  EF56  F07E         	goto	u151
  1500  00FCA8  EF58  F07E         	goto	u150
  1501  00FCAC                     u151:
  1502  00FCAC  EF66  F07E         	goto	l1317
  1503  00FCB0                     u150:
  1504  00FCB0                     
  1505                           ; BSR set to: 61
  1506                           ;mcc_generated_files/uart1.c: 154:         uart1RxLastError.ferr = 1;
  1507  00FCB0  8215               	bsf	_uart1RxLastError^0,1,c	;volatile
  1508  00FCB2                     
  1509                           ; BSR set to: 61
  1510                           ;mcc_generated_files/uart1.c: 155:         UART1_FramingErrorHandler();
  1511  00FCB2  D802               	call	u168
  1512  00FCB4  EF66  F07E         	goto	u169
  1513  00FCB8                     u168:
  1514  00FCB8  0005               	push	
  1515  00FCBA  6EFA               	movwf	pclath,c
  1516  00FCBC  501D               	movf	_UART1_FramingErrorHandler^0,w,c
  1517  00FCBE  6EFD               	movwf	tosl,c
  1518  00FCC0  501E               	movf	(_UART1_FramingErrorHandler+1)^0,w,c
  1519  00FCC2  6EFE               	movwf	tosh,c
  1520  00FCC4  50F8               	movf	tblptru,w,c
  1521  00FCC6  6EFF               	movwf	tosu,c
  1522  00FCC8  50FA               	movf	pclath,w,c
  1523  00FCCA  0012               	return		;indir
  1524  00FCCC                     u169:
  1525  00FCCC                     l1317:
  1526                           
  1527                           ;mcc_generated_files/uart1.c: 158:     if(U1ERRIRbits.RXFOIF){
  1528  00FCCC  013D               	movlb	61	; () banked
  1529  00FCCE  A3F9               	btfss	249,1,b	;volatile
  1530  00FCD0  EF6C  F07E         	goto	u171
  1531  00FCD4  EF6E  F07E         	goto	u170
  1532  00FCD8                     u171:
  1533  00FCD8  EF7C  F07E         	goto	l1323
  1534  00FCDC                     u170:
  1535  00FCDC                     
  1536                           ; BSR set to: 61
  1537                           ;mcc_generated_files/uart1.c: 159:         uart1RxLastError.oerr = 1;
  1538  00FCDC  8415               	bsf	_uart1RxLastError^0,2,c	;volatile
  1539  00FCDE                     
  1540                           ; BSR set to: 61
  1541                           ;mcc_generated_files/uart1.c: 160:         UART1_OverrunErrorHandler();
  1542  00FCDE  D802               	call	u188
  1543  00FCE0  EF7C  F07E         	goto	u189
  1544  00FCE4                     u188:
  1545  00FCE4  0005               	push	
  1546  00FCE6  6EFA               	movwf	pclath,c
  1547  00FCE8  501B               	movf	_UART1_OverrunErrorHandler^0,w,c
  1548  00FCEA  6EFD               	movwf	tosl,c
  1549  00FCEC  501C               	movf	(_UART1_OverrunErrorHandler+1)^0,w,c
  1550  00FCEE  6EFE               	movwf	tosh,c
  1551  00FCF0  50F8               	movf	tblptru,w,c
  1552  00FCF2  6EFF               	movwf	tosu,c
  1553  00FCF4  50FA               	movf	pclath,w,c
  1554  00FCF6  0012               	return		;indir
  1555  00FCF8                     u189:
  1556  00FCF8                     l1323:
  1557                           
  1558                           ;mcc_generated_files/uart1.c: 163:     if(uart1RxLastError.status){
  1559  00FCF8  5015               	movf	_uart1RxLastError^0,w,c	;volatile
  1560  00FCFA  B4D8               	btfsc	status,2,c
  1561  00FCFC  EF82  F07E         	goto	u191
  1562  00FD00  EF84  F07E         	goto	u190
  1563  00FD04                     u191:
  1564  00FD04  EF91  F07E         	goto	l1327
  1565  00FD08                     u190:
  1566  00FD08                     
  1567                           ;mcc_generated_files/uart1.c: 164:         UART1_ErrorHandler();
  1568  00FD08  D802               	call	u208
  1569  00FD0A  EF91  F07E         	goto	u209
  1570  00FD0E                     u208:
  1571  00FD0E  0005               	push	
  1572  00FD10  6EFA               	movwf	pclath,c
  1573  00FD12  5019               	movf	_UART1_ErrorHandler^0,w,c
  1574  00FD14  6EFD               	movwf	tosl,c
  1575  00FD16  501A               	movf	(_UART1_ErrorHandler+1)^0,w,c
  1576  00FD18  6EFE               	movwf	tosh,c
  1577  00FD1A  50F8               	movf	tblptru,w,c
  1578  00FD1C  6EFF               	movwf	tosu,c
  1579  00FD1E  50FA               	movf	pclath,w,c
  1580  00FD20  0012               	return		;indir
  1581  00FD22                     u209:
  1582  00FD22                     l1327:
  1583                           
  1584                           ;mcc_generated_files/uart1.c: 167:     return U1RXB;
  1585  00FD22  013D               	movlb	61	; () banked
  1586  00FD24  51E8               	movf	232,w,b	;volatile
  1587  00FD26                     
  1588                           ; BSR set to: 61
  1589  00FD26  0012               	return		;funcret
  1590  00FD28                     __end_of_UART1_Read:
  1591                           	callstack 0
  1592                           
  1593 ;; *************** function _UART1_DefaultOverrunErrorHandler *****************
  1594 ;; Defined at:
  1595 ;;		line 185 in file "mcc_generated_files/uart1.c"
  1596 ;; Parameters:    Size  Location     Type
  1597 ;;		None
  1598 ;; Auto vars:     Size  Location     Type
  1599 ;;		None
  1600 ;; Return value:  Size  Location     Type
  1601 ;;                  1    wreg      void 
  1602 ;; Registers used:
  1603 ;;		None
  1604 ;; Tracked objects:
  1605 ;;		On entry : 0/0
  1606 ;;		On exit  : 0/0
  1607 ;;		Unchanged: 0/0
  1608 ;; Data sizes:     COMRAM   BANK0   BANK1   BANK2   BANK3   BANK4   BANK5   BANK6   BANK7   BANK8   BANK9  BANK10  BANK1
      +1  BANK12  BANK13  BANK14  BANK15
  1609 ;;      Params:         0       0       0       0       0       0       0       0       0       0       0       0       
      +0       0       0       0       0
  1610 ;;      Locals:         0       0       0       0       0       0       0       0       0       0       0       0       
      +0       0       0       0       0
  1611 ;;      Temps:          0       0       0       0       0       0       0       0       0       0       0       0       
      +0       0       0       0       0
  1612 ;;      Totals:         0       0       0       0       0       0       0       0       0       0       0       0       
      +0       0       0       0       0
  1613 ;;Total ram usage:        0 bytes
  1614 ;; Hardware stack levels used:    1
  1615 ;; This function calls:
  1616 ;;		Nothing
  1617 ;; This function is called by:
  1618 ;;		_UART1_Initialize
  1619 ;;		_UART1_Read
  1620 ;; This function uses a non-reentrant model
  1621 ;;
  1622                           
  1623                           	psect	text15
  1624  00F7EE                     __ptext15:
  1625                           	callstack 0
  1626  00F7EE                     _UART1_DefaultOverrunErrorHandler:
  1627                           	callstack 27
  1628  00F7EE  0012               	return		;funcret
  1629  00F7F0                     __end_of_UART1_DefaultOverrunErrorHandler:
  1630                           	callstack 0
  1631                           
  1632 ;; *************** function _UART1_DefaultFramingErrorHandler *****************
  1633 ;; Defined at:
  1634 ;;		line 183 in file "mcc_generated_files/uart1.c"
  1635 ;; Parameters:    Size  Location     Type
  1636 ;;		None
  1637 ;; Auto vars:     Size  Location     Type
  1638 ;;		None
  1639 ;; Return value:  Size  Location     Type
  1640 ;;                  1    wreg      void 
  1641 ;; Registers used:
  1642 ;;		None
  1643 ;; Tracked objects:
  1644 ;;		On entry : 0/0
  1645 ;;		On exit  : 0/0
  1646 ;;		Unchanged: 0/0
  1647 ;; Data sizes:     COMRAM   BANK0   BANK1   BANK2   BANK3   BANK4   BANK5   BANK6   BANK7   BANK8   BANK9  BANK10  BANK1
      +1  BANK12  BANK13  BANK14  BANK15
  1648 ;;      Params:         0       0       0       0       0       0       0       0       0       0       0       0       
      +0       0       0       0       0
  1649 ;;      Locals:         0       0       0       0       0       0       0       0       0       0       0       0       
      +0       0       0       0       0
  1650 ;;      Temps:          0       0       0       0       0       0       0       0       0       0       0       0       
      +0       0       0       0       0
  1651 ;;      Totals:         0       0       0       0       0       0       0       0       0       0       0       0       
      +0       0       0       0       0
  1652 ;;Total ram usage:        0 bytes
  1653 ;; Hardware stack levels used:    1
  1654 ;; This function calls:
  1655 ;;		Nothing
  1656 ;; This function is called by:
  1657 ;;		_UART1_Initialize
  1658 ;;		_UART1_Read
  1659 ;; This function uses a non-reentrant model
  1660 ;;
  1661                           
  1662                           	psect	text16
  1663  00F7EC                     __ptext16:
  1664                           	callstack 0
  1665  00F7EC                     _UART1_DefaultFramingErrorHandler:
  1666                           	callstack 27
  1667  00F7EC  0012               	return		;funcret
  1668  00F7EE                     __end_of_UART1_DefaultFramingErrorHandler:
  1669                           	callstack 0
  1670                           
  1671 ;; *************** function _UART1_DefaultErrorHandler *****************
  1672 ;; Defined at:
  1673 ;;		line 187 in file "mcc_generated_files/uart1.c"
  1674 ;; Parameters:    Size  Location     Type
  1675 ;;		None
  1676 ;; Auto vars:     Size  Location     Type
  1677 ;;		None
  1678 ;; Return value:  Size  Location     Type
  1679 ;;                  1    wreg      void 
  1680 ;; Registers used:
  1681 ;;		None
  1682 ;; Tracked objects:
  1683 ;;		On entry : 0/0
  1684 ;;		On exit  : 0/0
  1685 ;;		Unchanged: 0/0
  1686 ;; Data sizes:     COMRAM   BANK0   BANK1   BANK2   BANK3   BANK4   BANK5   BANK6   BANK7   BANK8   BANK9  BANK10  BANK1
      +1  BANK12  BANK13  BANK14  BANK15
  1687 ;;      Params:         0       0       0       0       0       0       0       0       0       0       0       0       
      +0       0       0       0       0
  1688 ;;      Locals:         0       0       0       0       0       0       0       0       0       0       0       0       
      +0       0       0       0       0
  1689 ;;      Temps:          0       0       0       0       0       0       0       0       0       0       0       0       
      +0       0       0       0       0
  1690 ;;      Totals:         0       0       0       0       0       0       0       0       0       0       0       0       
      +0       0       0       0       0
  1691 ;;Total ram usage:        0 bytes
  1692 ;; Hardware stack levels used:    1
  1693 ;; This function calls:
  1694 ;;		Nothing
  1695 ;; This function is called by:
  1696 ;;		_UART1_Initialize
  1697 ;;		_UART1_Read
  1698 ;; This function uses a non-reentrant model
  1699 ;;
  1700                           
  1701                           	psect	text17
  1702  00F7EA                     __ptext17:
  1703                           	callstack 0
  1704  00F7EA                     _UART1_DefaultErrorHandler:
  1705                           	callstack 27
  1706  00F7EA  0012               	return		;funcret
  1707  00F7EC                     __end_of_UART1_DefaultErrorHandler:
  1708                           	callstack 0
  1709                           
  1710 ;; *************** function _ProcessBootBuffer *****************
  1711 ;; Defined at:
  1712 ;;		line 170 in file "mcc_generated_files/pic18f_bootload.c"
  1713 ;; Parameters:    Size  Location     Type
  1714 ;;		None
  1715 ;; Auto vars:     Size  Location     Type
  1716 ;;  len             1    8[COMRAM] unsigned char 
  1717 ;; Return value:  Size  Location     Type
  1718 ;;                  1    wreg      unsigned char 
  1719 ;; Registers used:
  1720 ;;		wreg, fsr2l, fsr2h, status,2, status,0, cstack
  1721 ;; Tracked objects:
  1722 ;;		On entry : 0/0
  1723 ;;		On exit  : 0/0
  1724 ;;		Unchanged: 0/0
  1725 ;; Data sizes:     COMRAM   BANK0   BANK1   BANK2   BANK3   BANK4   BANK5   BANK6   BANK7   BANK8   BANK9  BANK10  BANK1
      +1  BANK12  BANK13  BANK14  BANK15
  1726 ;;      Params:         0       0       0       0       0       0       0       0       0       0       0       0       
      +0       0       0       0       0
  1727 ;;      Locals:         1       0       0       0       0       0       0       0       0       0       0       0       
      +0       0       0       0       0
  1728 ;;      Temps:          2       0       0       0       0       0       0       0       0       0       0       0       
      +0       0       0       0       0
  1729 ;;      Totals:         3       0       0       0       0       0       0       0       0       0       0       0       
      +0       0       0       0       0
  1730 ;;Total ram usage:        3 bytes
  1731 ;; Hardware stack levels used:    1
  1732 ;; Hardware stack levels required when called:    2
  1733 ;; This function calls:
  1734 ;;		_Calc_Checksum
  1735 ;;		_Erase_Flash
  1736 ;;		_Get_Version_Data
  1737 ;;		_Read_Config
  1738 ;;		_Write_Config
  1739 ;;		_Write_Flash
  1740 ;; This function is called by:
  1741 ;;		_Run_Bootloader
  1742 ;; This function uses a non-reentrant model
  1743 ;;
  1744                           
  1745                           	psect	text18
  1746  00FD28                     __ptext18:
  1747                           	callstack 0
  1748  00FD28                     _ProcessBootBuffer:
  1749                           	callstack 26
  1750  00FD28                     
  1751                           ;mcc_generated_files/pic18f_bootload.c: 172:     uint8_t len;;mcc_generated_files/pic18f
      +                          _bootload.c: 173:     EE_Key_1 = frame.EE_key_1;
  1752  00FD28  0060  F18C  F000   	movff	_frame+3,0
  1753                           
  1754                           ;mcc_generated_files/pic18f_bootload.c: 174:     EE_Key_2 = frame.EE_key_2;
  1755  00FD2E  0060  F190  F001   	movff	_frame+4,1
  1756                           
  1757                           ;mcc_generated_files/pic18f_bootload.c: 177:     switch (frame.command)
  1758  00FD34  EFC7  F07E         	goto	l1289
  1759  00FD38                     l1273:
  1760                           
  1761                           ; BSR set to: 0
  1762                           ;mcc_generated_files/pic18f_bootload.c: 180:         len = Get_Version_Data();
  1763  00FD38  ECBD  F07D         	call	_Get_Version_Data	;wreg free
  1764  00FD3C  6E0A               	movwf	ProcessBootBuffer@len^0,c
  1765                           
  1766                           ;mcc_generated_files/pic18f_bootload.c: 181:         break;
  1767  00FD3E  EFF1  F07E         	goto	l1291
  1768  00FD42                     l1275:
  1769                           
  1770                           ; BSR set to: 0
  1771                           ;mcc_generated_files/pic18f_bootload.c: 183:         len = Write_Flash();
  1772  00FD42  ECF3  F07E         	call	_Write_Flash	;wreg free
  1773  00FD46  6E0A               	movwf	ProcessBootBuffer@len^0,c
  1774                           
  1775                           ;mcc_generated_files/pic18f_bootload.c: 184:         break;
  1776  00FD48  EFF1  F07E         	goto	l1291
  1777  00FD4C                     l1277:
  1778                           
  1779                           ; BSR set to: 0
  1780                           ;mcc_generated_files/pic18f_bootload.c: 186:         len = Erase_Flash();
  1781  00FD4C  EC7A  F07D         	call	_Erase_Flash	;wreg free
  1782  00FD50  6E0A               	movwf	ProcessBootBuffer@len^0,c
  1783                           
  1784                           ;mcc_generated_files/pic18f_bootload.c: 187:         break;
  1785  00FD52  EFF1  F07E         	goto	l1291
  1786  00FD56                     l1279:
  1787                           
  1788                           ; BSR set to: 0
  1789                           ;mcc_generated_files/pic18f_bootload.c: 189:         len = Read_Config();
  1790  00FD56  ECE1  F07C         	call	_Read_Config	;wreg free
  1791  00FD5A  6E0A               	movwf	ProcessBootBuffer@len^0,c
  1792                           
  1793                           ;mcc_generated_files/pic18f_bootload.c: 190:         break;
  1794  00FD5C  EFF1  F07E         	goto	l1291
  1795  00FD60                     l1281:
  1796                           
  1797                           ; BSR set to: 0
  1798                           ;mcc_generated_files/pic18f_bootload.c: 192:         len = Write_Config();
  1799  00FD60  EC00  F07E         	call	_Write_Config	;wreg free
  1800  00FD64  6E0A               	movwf	ProcessBootBuffer@len^0,c
  1801                           
  1802                           ;mcc_generated_files/pic18f_bootload.c: 193:         break;
  1803  00FD66  EFF1  F07E         	goto	l1291
  1804  00FD6A                     l1283:
  1805                           
  1806                           ; BSR set to: 0
  1807                           ;mcc_generated_files/pic18f_bootload.c: 195:         len = Calc_Checksum();
  1808  00FD6A  EC42  F07D         	call	_Calc_Checksum	;wreg free
  1809  00FD6E  6E0A               	movwf	ProcessBootBuffer@len^0,c
  1810                           
  1811                           ;mcc_generated_files/pic18f_bootload.c: 196:         break;
  1812  00FD70  EFF1  F07E         	goto	l1291
  1813  00FD74                     l1285:
  1814                           
  1815                           ; BSR set to: 0
  1816                           ;mcc_generated_files/pic18f_bootload.c: 198:         frame.data[0] = 0x01;
  1817  00FD74  0E01               	movlw	1
  1818  00FD76  6F69               	movwf	(_frame+9)& (0+255),b
  1819                           
  1820                           ;mcc_generated_files/pic18f_bootload.c: 199:         reset_pending = 1;
  1821  00FD78  0E01               	movlw	1
  1822  00FD7A  6E16               	movwf	_reset_pending^0,c
  1823                           
  1824                           ;mcc_generated_files/pic18f_bootload.c: 200:         len = 9;
  1825  00FD7C  0E09               	movlw	9
  1826  00FD7E  6E0A               	movwf	ProcessBootBuffer@len^0,c
  1827                           
  1828                           ;mcc_generated_files/pic18f_bootload.c: 201:         break;
  1829  00FD80  EFF1  F07E         	goto	l1291
  1830  00FD84                     l112:
  1831                           
  1832                           ; BSR set to: 0
  1833                           ;mcc_generated_files/pic18f_bootload.c: 203:         frame.data[0] = 0xFF;
  1834  00FD84  6969               	setf	(_frame+9)& (0+255),b
  1835  00FD86                     
  1836                           ; BSR set to: 0
  1837                           ;mcc_generated_files/pic18f_bootload.c: 204:         len = 10;
  1838  00FD86  0E0A               	movlw	10
  1839  00FD88  6E0A               	movwf	ProcessBootBuffer@len^0,c
  1840                           
  1841                           ;mcc_generated_files/pic18f_bootload.c: 205:     }
  1842  00FD8A  EFF1  F07E         	goto	l1291
  1843  00FD8E                     l1289:
  1844  00FD8E  0100               	movlb	0	; () banked
  1845  00FD90  5160               	movf	_frame& (0+255),w,b
  1846  00FD92  6E08               	movwf	??_ProcessBootBuffer^0,c
  1847  00FD94  6A09               	clrf	(??_ProcessBootBuffer+1)^0,c
  1848                           
  1849                           ; Switch on 2 bytes has been partitioned into a top level switch of size 1, and 1 sub-sw
      +                          itches
  1850                           ; Switch size 1, requested type "simple"
  1851                           ; Number of cases is 1, Range of values is 0 to 0
  1852                           ; switch strategies available:
  1853                           ; Name         Instructions Cycles
  1854                           ; simple_byte            4     3 (average)
  1855                           ;	Chosen strategy is simple_byte
  1856  00FD96  5009               	movf	(??_ProcessBootBuffer+1)^0,w,c
  1857  00FD98  0A00               	xorlw	0	; case 0
  1858  00FD9A  B4D8               	btfsc	status,2,c
  1859  00FD9C  EFD2  F07E         	goto	l1737
  1860  00FDA0  EFC2  F07E         	goto	l112
  1861  00FDA4                     l1737:
  1862                           
  1863                           ; BSR set to: 0
  1864                           ; Switch size 1, requested type "simple"
  1865                           ; Number of cases is 7, Range of values is 0 to 9
  1866                           ; switch strategies available:
  1867                           ; Name         Instructions Cycles
  1868                           ; simple_byte           22    12 (average)
  1869                           ;	Chosen strategy is simple_byte
  1870  00FDA4  5008               	movf	??_ProcessBootBuffer^0,w,c
  1871  00FDA6  0A00               	xorlw	0	; case 0
  1872  00FDA8  B4D8               	btfsc	status,2,c
  1873  00FDAA  EF9C  F07E         	goto	l1273
  1874  00FDAE  0A02               	xorlw	2	; case 2
  1875  00FDB0  B4D8               	btfsc	status,2,c
  1876  00FDB2  EFA1  F07E         	goto	l1275
  1877  00FDB6  0A01               	xorlw	1	; case 3
  1878  00FDB8  B4D8               	btfsc	status,2,c
  1879  00FDBA  EFA6  F07E         	goto	l1277
  1880  00FDBE  0A05               	xorlw	5	; case 6
  1881  00FDC0  B4D8               	btfsc	status,2,c
  1882  00FDC2  EFAB  F07E         	goto	l1279
  1883  00FDC6  0A01               	xorlw	1	; case 7
  1884  00FDC8  B4D8               	btfsc	status,2,c
  1885  00FDCA  EFB0  F07E         	goto	l1281
  1886  00FDCE  0A0F               	xorlw	15	; case 8
  1887  00FDD0  B4D8               	btfsc	status,2,c
  1888  00FDD2  EFB5  F07E         	goto	l1283
  1889  00FDD6  0A01               	xorlw	1	; case 9
  1890  00FDD8  B4D8               	btfsc	status,2,c
  1891  00FDDA  EFBA  F07E         	goto	l1285
  1892  00FDDE  EFC2  F07E         	goto	l112
  1893  00FDE2                     l1291:
  1894                           
  1895                           ;mcc_generated_files/pic18f_bootload.c: 206:     return (len);
  1896  00FDE2  500A               	movf	ProcessBootBuffer@len^0,w,c
  1897  00FDE4  0012               	return		;funcret
  1898  00FDE6                     __end_of_ProcessBootBuffer:
  1899                           	callstack 0
  1900                           
  1901 ;; *************** function _Write_Flash *****************
  1902 ;; Defined at:
  1903 ;;		line 259 in file "mcc_generated_files/pic18f_bootload.c"
  1904 ;; Parameters:    Size  Location     Type
  1905 ;;		None
  1906 ;; Auto vars:     Size  Location     Type
  1907 ;;  i               2    4[COMRAM] unsigned short 
  1908 ;; Return value:  Size  Location     Type
  1909 ;;                  1    wreg      unsigned char 
  1910 ;; Registers used:
  1911 ;;		wreg, fsr2l, fsr2h, status,2, status,0, cstack
  1912 ;; Tracked objects:
  1913 ;;		On entry : 0/0
  1914 ;;		On exit  : 0/0
  1915 ;;		Unchanged: 0/0
  1916 ;; Data sizes:     COMRAM   BANK0   BANK1   BANK2   BANK3   BANK4   BANK5   BANK6   BANK7   BANK8   BANK9  BANK10  BANK1
      +1  BANK12  BANK13  BANK14  BANK15
  1917 ;;      Params:         0       0       0       0       0       0       0       0       0       0       0       0       
      +0       0       0       0       0
  1918 ;;      Locals:         2       0       0       0       0       0       0       0       0       0       0       0       
      +0       0       0       0       0
  1919 ;;      Temps:          4       0       0       0       0       0       0       0       0       0       0       0       
      +0       0       0       0       0
  1920 ;;      Totals:         6       0       0       0       0       0       0       0       0       0       0       0       
      +0       0       0       0       0
  1921 ;;Total ram usage:        6 bytes
  1922 ;; Hardware stack levels used:    1
  1923 ;; Hardware stack levels required when called:    1
  1924 ;; This function calls:
  1925 ;;		_StartWrite
  1926 ;; This function is called by:
  1927 ;;		_ProcessBootBuffer
  1928 ;; This function uses a non-reentrant model
  1929 ;;
  1930                           
  1931                           	psect	text19
  1932  00FDE6                     __ptext19:
  1933                           	callstack 0
  1934  00FDE6                     _Write_Flash:
  1935                           	callstack 26
  1936  00FDE6                     
  1937                           ;mcc_generated_files/pic18f_bootload.c: 261:     TBLPTRL = frame.address_L;
  1938  00FDE6  0060  F197  FFF6   	movff	_frame+5,tblptrl	;volatile
  1939                           
  1940                           ;mcc_generated_files/pic18f_bootload.c: 262:     TBLPTRH = frame.address_H;
  1941  00FDEC  0060  F19B  FFF7   	movff	_frame+6,tblptrh	;volatile
  1942                           
  1943                           ;mcc_generated_files/pic18f_bootload.c: 263:     TBLPTRU = frame.address_U;
  1944  00FDF2  0060  F19F  FFF8   	movff	_frame+7,tblptru	;volatile
  1945  00FDF8                     
  1946                           ;mcc_generated_files/pic18f_bootload.c: 264:  NVMCON1 = 0xA4;
  1947  00FDF8  0EA4               	movlw	164
  1948  00FDFA  0139               	movlb	57	; () banked
  1949  00FDFC  6FE5               	movwf	229,b	;volsfr
  1950                           
  1951                           ;mcc_generated_files/pic18f_bootload.c: 265:     for (uint16_t i = 0; i < frame.data_len
      +                          gth; i ++)
  1952  00FDFE  0E00               	movlw	0
  1953  00FE00  6E07               	movwf	(Write_Flash@i+1)^0,c
  1954  00FE02  0E00               	movlw	0
  1955  00FE04  6E06               	movwf	Write_Flash@i^0,c
  1956  00FE06  EF4E  F07F         	goto	l1177
  1957  00FE0A                     l1159:
  1958                           
  1959                           ; BSR set to: 0
  1960                           ;mcc_generated_files/pic18f_bootload.c: 266:     {;mcc_generated_files/pic18f_bootload.c
      +                          : 267:         TABLAT = frame.data[i];
  1961  00FE0A  0E69               	movlw	low (_frame+9)
  1962  00FE0C  2406               	addwf	Write_Flash@i^0,w,c
  1963  00FE0E  6ED9               	movwf	fsr2l,c
  1964  00FE10  0E00               	movlw	high (_frame+9)
  1965  00FE12  2007               	addwfc	(Write_Flash@i+1)^0,w,c
  1966  00FE14  6EDA               	movwf	fsr2h,c
  1967  00FE16  50DF               	movf	indf2,w,c
  1968  00FE18  6EF5               	movwf	245,c	;volatile
  1969  00FE1A                     
  1970                           ; BSR set to: 0
  1971                           ;mcc_generated_files/pic18f_bootload.c: 268:         if (TBLPTR >= 0x010000)
  1972  00FE1A  0E00               	movlw	0
  1973  00FE1C  5CF6               	subwf	246,w,c	;volatile
  1974  00FE1E  0E00               	movlw	0
  1975  00FE20  58F7               	subwfb	247,w,c	;volatile
  1976  00FE22  0E01               	movlw	1
  1977  00FE24  58F8               	subwfb	248,w,c	;volatile
  1978  00FE26  A0D8               	btfss	status,0,c
  1979  00FE28  EF18  F07F         	goto	u21
  1980  00FE2C  EF1A  F07F         	goto	u20
  1981  00FE30                     u21:
  1982  00FE30  EF1F  F07F         	goto	l123
  1983  00FE34                     u20:
  1984  00FE34                     
  1985                           ; BSR set to: 0
  1986                           ;mcc_generated_files/pic18f_bootload.c: 269:         {;mcc_generated_files/pic18f_bootlo
      +                          ad.c: 270:             frame.data[0] = 0xFE;
  1987  00FE34  0EFE               	movlw	254
  1988  00FE36  6F69               	movwf	(_frame+9)& (0+255),b
  1989  00FE38                     l1165:
  1990                           
  1991                           ; BSR set to: 0
  1992                           ;mcc_generated_files/pic18f_bootload.c: 271:             return (10);
  1993  00FE38  0E0A               	movlw	10
  1994  00FE3A  EF62  F07F         	goto	l124
  1995  00FE3E                     l123:
  1996                           
  1997                           ; BSR set to: 0
  1998  00FE3E  000D               	tblwt		*+	;# 
  1999  00FE40                     
  2000                           ;mcc_generated_files/pic18f_bootload.c: 274:         if (((TBLPTRL & (128 - 1)) == 0x00)
  2001  00FE40  006F FFD8  F002    	movff	tblptrl,??_Write_Flash	;volatile
  2002  00FE46  0E7F               	movlw	127
  2003  00FE48  1602               	andwf	??_Write_Flash^0,f,c
  2004  00FE4A  B4D8               	btfsc	status,2,c
  2005  00FE4C  EF2A  F07F         	goto	u31
  2006  00FE50  EF2C  F07F         	goto	u30
  2007  00FE54                     u31:
  2008  00FE54  EF48  F07F         	goto	l127
  2009  00FE58                     u30:
  2010  00FE58  0EFF               	movlw	255
  2011  00FE5A  6E02               	movwf	??_Write_Flash^0,c
  2012  00FE5C  0EFF               	movlw	255
  2013  00FE5E  6E03               	movwf	(??_Write_Flash+1)^0,c
  2014  00FE60  EE20  F061         	lfsr	2,_frame+1
  2015  00FE64  006F FF78  F004    	movff	postinc2,??_Write_Flash+2
  2016  00FE6A  006F FF74  F005    	movff	postdec2,??_Write_Flash+3
  2017  00FE70  5002               	movf	??_Write_Flash^0,w,c
  2018  00FE72  2604               	addwf	(??_Write_Flash+2)^0,f,c
  2019  00FE74  5003               	movf	(??_Write_Flash+1)^0,w,c
  2020  00FE76  2205               	addwfc	(??_Write_Flash+3)^0,f,c
  2021  00FE78  5006               	movf	Write_Flash@i^0,w,c
  2022  00FE7A  1804               	xorwf	(??_Write_Flash+2)^0,w,c
  2023  00FE7C  E107               	bnz	u41
  2024  00FE7E  5007               	movf	(Write_Flash@i+1)^0,w,c
  2025  00FE80  1805               	xorwf	(??_Write_Flash+3)^0,w,c
  2026  00FE82  A4D8               	btfss	status,2,c
  2027  00FE84  EF46  F07F         	goto	u41
  2028  00FE88  EF48  F07F         	goto	u40
  2029  00FE8C                     u41:
  2030  00FE8C  EF4C  F07F         	goto	l1175
  2031  00FE90                     u40:
  2032  00FE90                     l127:
  2033  00FE90  000A               	tblrd		*-	;# 
  2034  00FE92                     
  2035                           ;mcc_generated_files/pic18f_bootload.c: 278:             StartWrite();
  2036  00FE92  EC0B  F07C         	call	_StartWrite	;wreg free
  2037  00FE96  0009               	tblrd		*+	;# 
  2038  00FE98                     l1175:
  2039                           
  2040                           ;mcc_generated_files/pic18f_bootload.c: 281:     }
  2041  00FE98  4A06               	infsnz	Write_Flash@i^0,f,c
  2042  00FE9A  2A07               	incf	(Write_Flash@i+1)^0,f,c
  2043  00FE9C                     l1177:
  2044  00FE9C  0100               	movlb	0	; () banked
  2045  00FE9E  5161               	movf	(_frame+1)& (0+255),w,b
  2046  00FEA0  5C06               	subwf	Write_Flash@i^0,w,c
  2047  00FEA2  5162               	movf	(_frame+2)& (0+255),w,b
  2048  00FEA4  5807               	subwfb	(Write_Flash@i+1)^0,w,c
  2049  00FEA6  A0D8               	btfss	status,0,c
  2050  00FEA8  EF58  F07F         	goto	u51
  2051  00FEAC  EF5A  F07F         	goto	u50
  2052  00FEB0                     u51:
  2053  00FEB0  EF05  F07F         	goto	l1159
  2054  00FEB4                     u50:
  2055  00FEB4                     
  2056                           ; BSR set to: 0
  2057                           ;mcc_generated_files/pic18f_bootload.c: 282:     frame.data[0] = 0x01;
  2058  00FEB4  0E01               	movlw	1
  2059  00FEB6  6F69               	movwf	(_frame+9)& (0+255),b
  2060                           
  2061                           ;mcc_generated_files/pic18f_bootload.c: 283:     EE_Key_1 = 0x00;
  2062  00FEB8  0E00               	movlw	0
  2063  00FEBA  6E00               	movwf	0,c
  2064                           
  2065                           ;mcc_generated_files/pic18f_bootload.c: 284:     EE_Key_2 = 0x00;
  2066  00FEBC  0E00               	movlw	0
  2067  00FEBE  6E01               	movwf	1,c
  2068  00FEC0  EF1C  F07F         	goto	l1165
  2069  00FEC4                     l124:
  2070                           
  2071                           ; BSR set to: 0
  2072  00FEC4  0012               	return		;funcret
  2073  00FEC6                     __end_of_Write_Flash:
  2074                           	callstack 0
  2075                           
  2076 ;; *************** function _Write_Config *****************
  2077 ;; Defined at:
  2078 ;;		line 344 in file "mcc_generated_files/pic18f_bootload.c"
  2079 ;; Parameters:    Size  Location     Type
  2080 ;;		None
  2081 ;; Auto vars:     Size  Location     Type
  2082 ;;  i               1    2[COMRAM] unsigned char 
  2083 ;; Return value:  Size  Location     Type
  2084 ;;                  1    wreg      unsigned char 
  2085 ;; Registers used:
  2086 ;;		wreg, fsr2l, fsr2h, status,2, status,0, cstack
  2087 ;; Tracked objects:
  2088 ;;		On entry : 0/0
  2089 ;;		On exit  : 0/0
  2090 ;;		Unchanged: 0/0
  2091 ;; Data sizes:     COMRAM   BANK0   BANK1   BANK2   BANK3   BANK4   BANK5   BANK6   BANK7   BANK8   BANK9  BANK10  BANK1
      +1  BANK12  BANK13  BANK14  BANK15
  2092 ;;      Params:         0       0       0       0       0       0       0       0       0       0       0       0       
      +0       0       0       0       0
  2093 ;;      Locals:         1       0       0       0       0       0       0       0       0       0       0       0       
      +0       0       0       0       0
  2094 ;;      Temps:          2       0       0       0       0       0       0       0       0       0       0       0       
      +0       0       0       0       0
  2095 ;;      Totals:         3       0       0       0       0       0       0       0       0       0       0       0       
      +0       0       0       0       0
  2096 ;;Total ram usage:        3 bytes
  2097 ;; Hardware stack levels used:    1
  2098 ;; Hardware stack levels required when called:    1
  2099 ;; This function calls:
  2100 ;;		_StartWrite
  2101 ;; This function is called by:
  2102 ;;		_ProcessBootBuffer
  2103 ;; This function uses a non-reentrant model
  2104 ;;
  2105                           
  2106                           	psect	text20
  2107  00FC00                     __ptext20:
  2108                           	callstack 0
  2109  00FC00                     _Write_Config:
  2110                           	callstack 26
  2111  00FC00                     
  2112                           ;mcc_generated_files/pic18f_bootload.c: 346:     TBLPTRL = frame.address_L;
  2113  00FC00  0060  F197  FFF6   	movff	_frame+5,tblptrl	;volatile
  2114                           
  2115                           ;mcc_generated_files/pic18f_bootload.c: 347:     TBLPTRH = frame.address_H;
  2116  00FC06  0060  F19B  FFF7   	movff	_frame+6,tblptrh	;volatile
  2117                           
  2118                           ;mcc_generated_files/pic18f_bootload.c: 348:     TBLPTRU = frame.address_U;
  2119  00FC0C  0060  F19F  FFF8   	movff	_frame+7,tblptru	;volatile
  2120  00FC12                     
  2121                           ;mcc_generated_files/pic18f_bootload.c: 349:     if (TBLPTR > 0x20000F)
  2122  00FC12  0E10               	movlw	16
  2123  00FC14  5CF6               	subwf	246,w,c	;volatile
  2124  00FC16  0E00               	movlw	0
  2125  00FC18  58F7               	subwfb	247,w,c	;volatile
  2126  00FC1A  0E20               	movlw	32
  2127  00FC1C  58F8               	subwfb	248,w,c	;volatile
  2128  00FC1E  A0D8               	btfss	status,0,c
  2129  00FC20  EF14  F07E         	goto	u91
  2130  00FC24  EF16  F07E         	goto	u90
  2131  00FC28                     u91:
  2132  00FC28  EF1B  F07E         	goto	l1233
  2133  00FC2C                     u90:
  2134  00FC2C                     
  2135                           ;mcc_generated_files/pic18f_bootload.c: 350:         NVMCON1 = 0xC4;
  2136  00FC2C  0EC4               	movlw	196
  2137  00FC2E  0139               	movlb	57	; () banked
  2138  00FC30  6FE5               	movwf	229,b	;volsfr
  2139  00FC32  EF1E  F07E         	goto	l145
  2140  00FC36                     l1233:
  2141                           
  2142                           ;mcc_generated_files/pic18f_bootload.c: 352:         NVMCON1 = 0x84;
  2143  00FC36  0E84               	movlw	132
  2144  00FC38  0139               	movlb	57	; () banked
  2145  00FC3A  6FE5               	movwf	229,b	;volsfr
  2146  00FC3C                     l145:
  2147                           
  2148                           ; BSR set to: 57
  2149                           ;mcc_generated_files/pic18f_bootload.c: 353:     for (uint8_t i= 0; i < frame.data_lengt
      +                          h; i ++)
  2150  00FC3C  0E00               	movlw	0
  2151  00FC3E  6E04               	movwf	Write_Config@i^0,c
  2152  00FC40  EF2F  F07E         	goto	l1243
  2153  00FC44                     l1235:
  2154                           
  2155                           ; BSR set to: 0
  2156                           ;mcc_generated_files/pic18f_bootload.c: 354:     {;mcc_generated_files/pic18f_bootload.c
      +                          : 355:         TABLAT = frame.data[i];
  2157  00FC44  0E69               	movlw	low (_frame+9)
  2158  00FC46  2404               	addwf	Write_Config@i^0,w,c
  2159  00FC48  6ED9               	movwf	fsr2l,c
  2160  00FC4A  6ADA               	clrf	fsr2h,c
  2161  00FC4C  0E00               	movlw	high (_frame+9)
  2162  00FC4E  22DA               	addwfc	fsr2h,f,c
  2163  00FC50  50DF               	movf	indf2,w,c
  2164  00FC52  6EF5               	movwf	245,c	;volatile
  2165  00FC54  000C               	tblwt		*	;# 
  2166  00FC56                     
  2167                           ;mcc_generated_files/pic18f_bootload.c: 357:         StartWrite();
  2168  00FC56  EC0B  F07C         	call	_StartWrite	;wreg free
  2169  00FC5A                     
  2170                           ;mcc_generated_files/pic18f_bootload.c: 358:         ++ TBLPTRL;
  2171  00FC5A  2AF6               	incf	246,f,c	;volatile
  2172  00FC5C                     
  2173                           ;mcc_generated_files/pic18f_bootload.c: 359:     }
  2174  00FC5C  2A04               	incf	Write_Config@i^0,f,c
  2175  00FC5E                     l1243:
  2176  00FC5E  5004               	movf	Write_Config@i^0,w,c
  2177  00FC60  6E02               	movwf	??_Write_Config^0,c
  2178  00FC62  6A03               	clrf	(??_Write_Config+1)^0,c
  2179  00FC64  0100               	movlb	0	; () banked
  2180  00FC66  5161               	movf	(_frame+1)& (0+255),w,b
  2181  00FC68  5C02               	subwf	??_Write_Config^0,w,c
  2182  00FC6A  5162               	movf	(_frame+2)& (0+255),w,b
  2183  00FC6C  5803               	subwfb	(??_Write_Config+1)^0,w,c
  2184  00FC6E  A0D8               	btfss	status,0,c
  2185  00FC70  EF3C  F07E         	goto	u101
  2186  00FC74  EF3E  F07E         	goto	u100
  2187  00FC78                     u101:
  2188  00FC78  EF22  F07E         	goto	l1235
  2189  00FC7C                     u100:
  2190  00FC7C                     
  2191                           ; BSR set to: 0
  2192                           ;mcc_generated_files/pic18f_bootload.c: 360:     frame.data[0] = 0x01;
  2193  00FC7C  0E01               	movlw	1
  2194  00FC7E  6F69               	movwf	(_frame+9)& (0+255),b
  2195                           
  2196                           ;mcc_generated_files/pic18f_bootload.c: 361:     EE_Key_1 = 0x00;
  2197  00FC80  0E00               	movlw	0
  2198  00FC82  6E00               	movwf	0,c
  2199                           
  2200                           ;mcc_generated_files/pic18f_bootload.c: 362:     EE_Key_2 = 0x00;
  2201  00FC84  0E00               	movlw	0
  2202  00FC86  6E01               	movwf	1,c
  2203  00FC88                     
  2204                           ; BSR set to: 0
  2205                           ;mcc_generated_files/pic18f_bootload.c: 363:     return (10);
  2206  00FC88  0E0A               	movlw	10
  2207  00FC8A                     
  2208                           ; BSR set to: 0
  2209  00FC8A  0012               	return		;funcret
  2210  00FC8C                     __end_of_Write_Config:
  2211                           	callstack 0
  2212                           
  2213 ;; *************** function _Read_Config *****************
  2214 ;; Defined at:
  2215 ;;		line 324 in file "mcc_generated_files/pic18f_bootload.c"
  2216 ;; Parameters:    Size  Location     Type
  2217 ;;		None
  2218 ;; Auto vars:     Size  Location     Type
  2219 ;;  i               1    2[COMRAM] unsigned char 
  2220 ;; Return value:  Size  Location     Type
  2221 ;;                  1    wreg      unsigned char 
  2222 ;; Registers used:
  2223 ;;		wreg, fsr2l, fsr2h, status,2, status,0
  2224 ;; Tracked objects:
  2225 ;;		On entry : 0/0
  2226 ;;		On exit  : 0/0
  2227 ;;		Unchanged: 0/0
  2228 ;; Data sizes:     COMRAM   BANK0   BANK1   BANK2   BANK3   BANK4   BANK5   BANK6   BANK7   BANK8   BANK9  BANK10  BANK1
      +1  BANK12  BANK13  BANK14  BANK15
  2229 ;;      Params:         0       0       0       0       0       0       0       0       0       0       0       0       
      +0       0       0       0       0
  2230 ;;      Locals:         1       0       0       0       0       0       0       0       0       0       0       0       
      +0       0       0       0       0
  2231 ;;      Temps:          2       0       0       0       0       0       0       0       0       0       0       0       
      +0       0       0       0       0
  2232 ;;      Totals:         3       0       0       0       0       0       0       0       0       0       0       0       
      +0       0       0       0       0
  2233 ;;Total ram usage:        3 bytes
  2234 ;; Hardware stack levels used:    1
  2235 ;; This function calls:
  2236 ;;		Nothing
  2237 ;; This function is called by:
  2238 ;;		_ProcessBootBuffer
  2239 ;; This function uses a non-reentrant model
  2240 ;;
  2241                           
  2242                           	psect	text21
  2243  00F9C2                     __ptext21:
  2244                           	callstack 0
  2245  00F9C2                     _Read_Config:
  2246                           	callstack 27
  2247  00F9C2                     
  2248                           ;mcc_generated_files/pic18f_bootload.c: 326:     TBLPTRL = frame.address_L;
  2249  00F9C2  0060  F197  FFF6   	movff	_frame+5,tblptrl	;volatile
  2250                           
  2251                           ;mcc_generated_files/pic18f_bootload.c: 327:     TBLPTRH = frame.address_H;
  2252  00F9C8  0060  F19B  FFF7   	movff	_frame+6,tblptrh	;volatile
  2253                           
  2254                           ;mcc_generated_files/pic18f_bootload.c: 328:     TBLPTRU = frame.address_U;
  2255  00F9CE  0060  F19F  FFF8   	movff	_frame+7,tblptru	;volatile
  2256  00F9D4                     
  2257                           ;mcc_generated_files/pic18f_bootload.c: 329:  NVMCON1 = 0xC0;
  2258  00F9D4  0EC0               	movlw	192
  2259  00F9D6  0139               	movlb	57	; () banked
  2260  00F9D8  6FE5               	movwf	229,b	;volsfr
  2261                           
  2262                           ;mcc_generated_files/pic18f_bootload.c: 330:     for (uint8_t i = 0; i < frame.data_leng
      +                          th; i++)
  2263  00F9DA  0E00               	movlw	0
  2264  00F9DC  6E04               	movwf	Read_Config@i^0,c
  2265  00F9DE  EFFC  F07C         	goto	l1221
  2266  00F9E2                     l139:
  2267                           
  2268                           ; BSR set to: 0
  2269  00F9E2  0009               	tblrd		*+	;# 
  2270  00F9E4                     
  2271                           ;mcc_generated_files/pic18f_bootload.c: 333:         frame.data[i] = TABLAT;
  2272  00F9E4  0E69               	movlw	low (_frame+9)
  2273  00F9E6  2404               	addwf	Read_Config@i^0,w,c
  2274  00F9E8  6ED9               	movwf	fsr2l,c
  2275  00F9EA  6ADA               	clrf	fsr2h,c
  2276  00F9EC  0E00               	movlw	high (_frame+9)
  2277  00F9EE  22DA               	addwfc	fsr2h,f,c
  2278  00F9F0  006F FFD7 FFDF     	movff	tablat,indf2	;volatile
  2279  00F9F6                     
  2280                           ;mcc_generated_files/pic18f_bootload.c: 334:     }
  2281  00F9F6  2A04               	incf	Read_Config@i^0,f,c
  2282  00F9F8                     l1221:
  2283  00F9F8  5004               	movf	Read_Config@i^0,w,c
  2284  00F9FA  6E02               	movwf	??_Read_Config^0,c
  2285  00F9FC  6A03               	clrf	(??_Read_Config+1)^0,c
  2286  00F9FE  0100               	movlb	0	; () banked
  2287  00FA00  5161               	movf	(_frame+1)& (0+255),w,b
  2288  00FA02  5C02               	subwf	??_Read_Config^0,w,c
  2289  00FA04  5162               	movf	(_frame+2)& (0+255),w,b
  2290  00FA06  5803               	subwfb	(??_Read_Config+1)^0,w,c
  2291  00FA08  A0D8               	btfss	status,0,c
  2292  00FA0A  EF09  F07D         	goto	u81
  2293  00FA0E  EF0B  F07D         	goto	u80
  2294  00FA12                     u81:
  2295  00FA12  EFF1  F07C         	goto	l139
  2296  00FA16                     u80:
  2297  00FA16                     
  2298                           ; BSR set to: 0
  2299                           ;mcc_generated_files/pic18f_bootload.c: 335:     return (9 + frame.data_length);
  2300  00FA16  5161               	movf	(_frame+1)& (0+255),w,b
  2301  00FA18  0F09               	addlw	9
  2302  00FA1A                     
  2303                           ; BSR set to: 0
  2304  00FA1A  0012               	return		;funcret
  2305  00FA1C                     __end_of_Read_Config:
  2306                           	callstack 0
  2307                           
  2308 ;; *************** function _Get_Version_Data *****************
  2309 ;; Defined at:
  2310 ;;		line 216 in file "mcc_generated_files/pic18f_bootload.c"
  2311 ;; Parameters:    Size  Location     Type
  2312 ;;		None
  2313 ;; Auto vars:     Size  Location     Type
  2314 ;;  i               1    0[COMRAM] unsigned char 
  2315 ;; Return value:  Size  Location     Type
  2316 ;;                  1    wreg      unsigned char 
  2317 ;; Registers used:
  2318 ;;		wreg, fsr2l, fsr2h, status,2, status,0
  2319 ;; Tracked objects:
  2320 ;;		On entry : 0/0
  2321 ;;		On exit  : 0/0
  2322 ;;		Unchanged: 0/0
  2323 ;; Data sizes:     COMRAM   BANK0   BANK1   BANK2   BANK3   BANK4   BANK5   BANK6   BANK7   BANK8   BANK9  BANK10  BANK1
      +1  BANK12  BANK13  BANK14  BANK15
  2324 ;;      Params:         0       0       0       0       0       0       0       0       0       0       0       0       
      +0       0       0       0       0
  2325 ;;      Locals:         1       0       0       0       0       0       0       0       0       0       0       0       
      +0       0       0       0       0
  2326 ;;      Temps:          0       0       0       0       0       0       0       0       0       0       0       0       
      +0       0       0       0       0
  2327 ;;      Totals:         1       0       0       0       0       0       0       0       0       0       0       0       
      +0       0       0       0       0
  2328 ;;Total ram usage:        1 bytes
  2329 ;; Hardware stack levels used:    1
  2330 ;; This function calls:
  2331 ;;		Nothing
  2332 ;; This function is called by:
  2333 ;;		_ProcessBootBuffer
  2334 ;; This function uses a non-reentrant model
  2335 ;;
  2336                           
  2337                           	psect	text22
  2338  00FB7A                     __ptext22:
  2339                           	callstack 0
  2340  00FB7A                     _Get_Version_Data:
  2341                           	callstack 27
  2342  00FB7A                     
  2343                           ;mcc_generated_files/pic18f_bootload.c: 218:     frame.data[0] = 0x01;
  2344  00FB7A  0E01               	movlw	1
  2345  00FB7C  0100               	movlb	0	; () banked
  2346  00FB7E  6F69               	movwf	(_frame+9)& (0+255),b
  2347                           
  2348                           ;mcc_generated_files/pic18f_bootload.c: 219:     frame.data[1] = 0x01;
  2349  00FB80  0E01               	movlw	1
  2350  00FB82  6F6A               	movwf	(_frame+10)& (0+255),b
  2351                           
  2352                           ;mcc_generated_files/pic18f_bootload.c: 220:     frame.data[2] = 0;
  2353  00FB84  0E00               	movlw	0
  2354  00FB86  6F6B               	movwf	(_frame+11)& (0+255),b
  2355                           
  2356                           ;mcc_generated_files/pic18f_bootload.c: 221:     frame.data[3] = 1;
  2357  00FB88  0E01               	movlw	1
  2358  00FB8A  6F6C               	movwf	(_frame+12)& (0+255),b
  2359                           
  2360                           ;mcc_generated_files/pic18f_bootload.c: 222:     frame.data[4] = 0;
  2361  00FB8C  0E00               	movlw	0
  2362  00FB8E  6F6D               	movwf	(_frame+13)& (0+255),b
  2363                           
  2364                           ;mcc_generated_files/pic18f_bootload.c: 223:     frame.data[5] = 0;
  2365  00FB90  0E00               	movlw	0
  2366  00FB92  6F6E               	movwf	(_frame+14)& (0+255),b
  2367                           
  2368                           ;mcc_generated_files/pic18f_bootload.c: 224:     TBLPTRU = 0x3F;
  2369  00FB94  0E3F               	movlw	63
  2370  00FB96  6EF8               	movwf	248,c	;volatile
  2371  00FB98                     
  2372                           ; BSR set to: 0
  2373                           ;mcc_generated_files/pic18f_bootload.c: 225:     TBLPTRH = 0xFF;
  2374  00FB98  68F7               	setf	247,c	;volatile
  2375                           
  2376                           ;mcc_generated_files/pic18f_bootload.c: 226:     TBLPTRL = 0xFE;
  2377  00FB9A  0EFE               	movlw	254
  2378  00FB9C  6EF6               	movwf	246,c	;volatile
  2379                           
  2380                           ;mcc_generated_files/pic18f_bootload.c: 227:     NVMCON1 = 0xC0;
  2381  00FB9E  0EC0               	movlw	192
  2382  00FBA0  0139               	movlb	57	; () banked
  2383  00FBA2  6FE5               	movwf	229,b	;volsfr
  2384  00FBA4  0009               	tblrd		*+	;# 
  2385  00FBA6                     
  2386                           ;mcc_generated_files/pic18f_bootload.c: 229:     frame.data[6] = TABLAT;
  2387  00FBA6  006F FFD4  F06F    	movff	tablat,_frame+15	;volatile
  2388  00FBAC  0009               	tblrd		*+	;# 
  2389  00FBAE                     
  2390                           ;mcc_generated_files/pic18f_bootload.c: 231:     frame.data[7] = TABLAT;
  2391  00FBAE  006F FFD4  F070    	movff	tablat,_frame+16	;volatile
  2392                           
  2393                           ;mcc_generated_files/pic18f_bootload.c: 232:     frame.data[8] = 0;
  2394  00FBB4  0E00               	movlw	0
  2395  00FBB6  0100               	movlb	0	; () banked
  2396  00FBB8  6F71               	movwf	(_frame+17)& (0+255),b
  2397                           
  2398                           ;mcc_generated_files/pic18f_bootload.c: 233:     frame.data[9] = 0;
  2399  00FBBA  0E00               	movlw	0
  2400  00FBBC  6F72               	movwf	(_frame+18)& (0+255),b
  2401                           
  2402                           ;mcc_generated_files/pic18f_bootload.c: 235:     frame.data[10] = 128;
  2403  00FBBE  0E80               	movlw	128
  2404  00FBC0  6F73               	movwf	(_frame+19)& (0+255),b
  2405                           
  2406                           ;mcc_generated_files/pic18f_bootload.c: 236:     frame.data[11] = 128;
  2407  00FBC2  0E80               	movlw	128
  2408  00FBC4  6F74               	movwf	(_frame+20)& (0+255),b
  2409                           
  2410                           ;mcc_generated_files/pic18f_bootload.c: 238:     TBLPTRU = 0x30;
  2411  00FBC6  0E30               	movlw	48
  2412  00FBC8  6EF8               	movwf	248,c	;volatile
  2413                           
  2414                           ;mcc_generated_files/pic18f_bootload.c: 239:     TBLPTRH = 0x00;
  2415  00FBCA  0E00               	movlw	0
  2416  00FBCC  6EF7               	movwf	247,c	;volatile
  2417                           
  2418                           ;mcc_generated_files/pic18f_bootload.c: 240:     TBLPTRL = 0x00;
  2419  00FBCE  0E00               	movlw	0
  2420  00FBD0  6EF6               	movwf	246,c	;volatile
  2421                           
  2422                           ;mcc_generated_files/pic18f_bootload.c: 242:     for (uint8_t i= 12; i < 16; i++)
  2423  00FBD2  0E0C               	movlw	12
  2424  00FBD4  6E02               	movwf	Get_Version_Data@i^0,c
  2425  00FBD6                     l116:
  2426  00FBD6  0009               	tblrd		*+	;# 
  2427  00FBD8                     
  2428                           ;mcc_generated_files/pic18f_bootload.c: 245:         frame.data[i] = TABLAT;
  2429  00FBD8  0E69               	movlw	low (_frame+9)
  2430  00FBDA  2402               	addwf	Get_Version_Data@i^0,w,c
  2431  00FBDC  6ED9               	movwf	fsr2l,c
  2432  00FBDE  6ADA               	clrf	fsr2h,c
  2433  00FBE0  0E00               	movlw	high (_frame+9)
  2434  00FBE2  22DA               	addwfc	fsr2h,f,c
  2435  00FBE4  006F FFD7 FFDF     	movff	tablat,indf2	;volatile
  2436  00FBEA                     
  2437                           ;mcc_generated_files/pic18f_bootload.c: 246:     }
  2438  00FBEA  2A02               	incf	Get_Version_Data@i^0,f,c
  2439  00FBEC  0E0F               	movlw	15
  2440  00FBEE  6402               	cpfsgt	Get_Version_Data@i^0,c
  2441  00FBF0  EFFC  F07D         	goto	u11
  2442  00FBF4  EFFE  F07D         	goto	u10
  2443  00FBF8                     u11:
  2444  00FBF8  EFEB  F07D         	goto	l116
  2445  00FBFC                     u10:
  2446  00FBFC                     
  2447                           ;mcc_generated_files/pic18f_bootload.c: 248:     return 25;
  2448  00FBFC  0E19               	movlw	25
  2449  00FBFE  0012               	return		;funcret
  2450  00FC00                     __end_of_Get_Version_Data:
  2451                           	callstack 0
  2452                           
  2453 ;; *************** function _Erase_Flash *****************
  2454 ;; Defined at:
  2455 ;;		line 295 in file "mcc_generated_files/pic18f_bootload.c"
  2456 ;; Parameters:    Size  Location     Type
  2457 ;;		None
  2458 ;; Auto vars:     Size  Location     Type
  2459 ;;  i               2    0[COMRAM] unsigned short 
  2460 ;; Return value:  Size  Location     Type
  2461 ;;                  1    wreg      unsigned char 
  2462 ;; Registers used:
  2463 ;;		wreg, status,2, status,0, cstack
  2464 ;; Tracked objects:
  2465 ;;		On entry : 0/0
  2466 ;;		On exit  : 0/0
  2467 ;;		Unchanged: 0/0
  2468 ;; Data sizes:     COMRAM   BANK0   BANK1   BANK2   BANK3   BANK4   BANK5   BANK6   BANK7   BANK8   BANK9  BANK10  BANK1
      +1  BANK12  BANK13  BANK14  BANK15
  2469 ;;      Params:         0       0       0       0       0       0       0       0       0       0       0       0       
      +0       0       0       0       0
  2470 ;;      Locals:         2       0       0       0       0       0       0       0       0       0       0       0       
      +0       0       0       0       0
  2471 ;;      Temps:          0       0       0       0       0       0       0       0       0       0       0       0       
      +0       0       0       0       0
  2472 ;;      Totals:         2       0       0       0       0       0       0       0       0       0       0       0       
      +0       0       0       0       0
  2473 ;;Total ram usage:        2 bytes
  2474 ;; Hardware stack levels used:    1
  2475 ;; Hardware stack levels required when called:    1
  2476 ;; This function calls:
  2477 ;;		_StartWrite
  2478 ;; This function is called by:
  2479 ;;		_ProcessBootBuffer
  2480 ;; This function uses a non-reentrant model
  2481 ;;
  2482                           
  2483                           	psect	text23
  2484  00FAF4                     __ptext23:
  2485                           	callstack 0
  2486  00FAF4                     _Erase_Flash:
  2487                           	callstack 26
  2488  00FAF4                     
  2489                           ;mcc_generated_files/pic18f_bootload.c: 297:     TBLPTRL = frame.address_L;
  2490  00FAF4  0060  F197  FFF6   	movff	_frame+5,tblptrl	;volatile
  2491                           
  2492                           ;mcc_generated_files/pic18f_bootload.c: 298:     TBLPTRH = frame.address_H;
  2493  00FAFA  0060  F19B  FFF7   	movff	_frame+6,tblptrh	;volatile
  2494                           
  2495                           ;mcc_generated_files/pic18f_bootload.c: 299:     TBLPTRU = frame.address_U;
  2496  00FB00  0060  F19F  FFF8   	movff	_frame+7,tblptru	;volatile
  2497  00FB06                     
  2498                           ;mcc_generated_files/pic18f_bootload.c: 300:     for (uint16_t i=0; i < frame.data_lengt
      +                          h; i++)
  2499  00FB06  0E00               	movlw	0
  2500  00FB08  6E03               	movwf	(Erase_Flash@i+1)^0,c
  2501  00FB0A  0E00               	movlw	0
  2502  00FB0C  6E02               	movwf	Erase_Flash@i^0,c
  2503  00FB0E  EFA8  F07D         	goto	l1205
  2504  00FB12                     l1189:
  2505                           
  2506                           ; BSR set to: 0
  2507                           ;mcc_generated_files/pic18f_bootload.c: 301:     {;mcc_generated_files/pic18f_bootload.c
      +                          : 302:         if (TBLPTR >= 0x010000)
  2508  00FB12  0E00               	movlw	0
  2509  00FB14  5CF6               	subwf	246,w,c	;volatile
  2510  00FB16  0E00               	movlw	0
  2511  00FB18  58F7               	subwfb	247,w,c	;volatile
  2512  00FB1A  0E01               	movlw	1
  2513  00FB1C  58F8               	subwfb	248,w,c	;volatile
  2514  00FB1E  A0D8               	btfss	status,0,c
  2515  00FB20  EF94  F07D         	goto	u61
  2516  00FB24  EF96  F07D         	goto	u60
  2517  00FB28                     u61:
  2518  00FB28  EF9B  F07D         	goto	l1197
  2519  00FB2C                     u60:
  2520  00FB2C                     
  2521                           ; BSR set to: 0
  2522                           ;mcc_generated_files/pic18f_bootload.c: 303:         {;mcc_generated_files/pic18f_bootlo
      +                          ad.c: 304:             frame.data[0] = 0xFE;
  2523  00FB2C  0EFE               	movlw	254
  2524  00FB2E  6F69               	movwf	(_frame+9)& (0+255),b
  2525  00FB30                     l1193:
  2526                           
  2527                           ; BSR set to: 0
  2528                           ;mcc_generated_files/pic18f_bootload.c: 305:             return (10);
  2529  00FB30  0E0A               	movlw	10
  2530  00FB32  EFBC  F07D         	goto	l134
  2531  00FB36                     l1197:
  2532                           
  2533                           ; BSR set to: 0
  2534                           ;mcc_generated_files/pic18f_bootload.c: 307:         NVMCON1 = 0x94;
  2535  00FB36  0E94               	movlw	148
  2536  00FB38  0139               	movlb	57	; () banked
  2537  00FB3A  6FE5               	movwf	229,b	;volsfr
  2538  00FB3C                     
  2539                           ; BSR set to: 57
  2540                           ;mcc_generated_files/pic18f_bootload.c: 308:         StartWrite();
  2541  00FB3C  EC0B  F07C         	call	_StartWrite	;wreg free
  2542  00FB40                     
  2543                           ;mcc_generated_files/pic18f_bootload.c: 309:         TBLPTR += 128;
  2544  00FB40  0E80               	movlw	128
  2545  00FB42  26F6               	addwf	246,f,c	;volatile
  2546  00FB44  0E00               	movlw	0
  2547  00FB46  22F7               	addwfc	247,f,c	;volatile
  2548  00FB48  0E00               	movlw	0
  2549  00FB4A  22F8               	addwfc	248,f,c	;volatile
  2550  00FB4C                     
  2551                           ;mcc_generated_files/pic18f_bootload.c: 310:     }
  2552  00FB4C  4A02               	infsnz	Erase_Flash@i^0,f,c
  2553  00FB4E  2A03               	incf	(Erase_Flash@i+1)^0,f,c
  2554  00FB50                     l1205:
  2555  00FB50  0100               	movlb	0	; () banked
  2556  00FB52  5161               	movf	(_frame+1)& (0+255),w,b
  2557  00FB54  5C02               	subwf	Erase_Flash@i^0,w,c
  2558  00FB56  5162               	movf	(_frame+2)& (0+255),w,b
  2559  00FB58  5803               	subwfb	(Erase_Flash@i+1)^0,w,c
  2560  00FB5A  A0D8               	btfss	status,0,c
  2561  00FB5C  EFB2  F07D         	goto	u71
  2562  00FB60  EFB4  F07D         	goto	u70
  2563  00FB64                     u71:
  2564  00FB64  EF89  F07D         	goto	l1189
  2565  00FB68                     u70:
  2566  00FB68                     
  2567                           ; BSR set to: 0
  2568                           ;mcc_generated_files/pic18f_bootload.c: 311:     frame.data[0] = 0x01;
  2569  00FB68  0E01               	movlw	1
  2570  00FB6A  6F69               	movwf	(_frame+9)& (0+255),b
  2571                           
  2572                           ;mcc_generated_files/pic18f_bootload.c: 312:     frame.EE_key_1 = 0x00;
  2573  00FB6C  0E00               	movlw	0
  2574  00FB6E  6F63               	movwf	(_frame+3)& (0+255),b
  2575                           
  2576                           ;mcc_generated_files/pic18f_bootload.c: 313:     frame.EE_key_2 = 0x00;
  2577  00FB70  0E00               	movlw	0
  2578  00FB72  6F64               	movwf	(_frame+4)& (0+255),b
  2579  00FB74  EF98  F07D         	goto	l1193
  2580  00FB78                     l134:
  2581                           
  2582                           ; BSR set to: 0
  2583  00FB78  0012               	return		;funcret
  2584  00FB7A                     __end_of_Erase_Flash:
  2585                           	callstack 0
  2586                           
  2587 ;; *************** function _StartWrite *****************
  2588 ;; Defined at:
  2589 ;;		line 411 in file "mcc_generated_files/pic18f_bootload.c"
  2590 ;; Parameters:    Size  Location     Type
  2591 ;;		None
  2592 ;; Auto vars:     Size  Location     Type
  2593 ;;		None
  2594 ;; Return value:  Size  Location     Type
  2595 ;;                  1    wreg      void 
  2596 ;; Registers used:
  2597 ;;		None
  2598 ;; Tracked objects:
  2599 ;;		On entry : 0/0
  2600 ;;		On exit  : 0/0
  2601 ;;		Unchanged: 0/0
  2602 ;; Data sizes:     COMRAM   BANK0   BANK1   BANK2   BANK3   BANK4   BANK5   BANK6   BANK7   BANK8   BANK9  BANK10  BANK1
      +1  BANK12  BANK13  BANK14  BANK15
  2603 ;;      Params:         0       0       0       0       0       0       0       0       0       0       0       0       
      +0       0       0       0       0
  2604 ;;      Locals:         0       0       0       0       0       0       0       0       0       0       0       0       
      +0       0       0       0       0
  2605 ;;      Temps:          0       0       0       0       0       0       0       0       0       0       0       0       
      +0       0       0       0       0
  2606 ;;      Totals:         0       0       0       0       0       0       0       0       0       0       0       0       
      +0       0       0       0       0
  2607 ;;Total ram usage:        0 bytes
  2608 ;; Hardware stack levels used:    1
  2609 ;; This function calls:
  2610 ;;		Nothing
  2611 ;; This function is called by:
  2612 ;;		_Write_Flash
  2613 ;;		_Erase_Flash
  2614 ;;		_Write_Config
  2615 ;; This function uses a non-reentrant model
  2616 ;;
  2617                           
  2618                           	psect	text24
  2619  00F816                     __ptext24:
  2620                           	callstack 0
  2621  00F816                     _StartWrite:
  2622                           	callstack 26
  2623  00F816  0139               	banksel	14822	;# 
  2624  00F818  5000               	movf	0,w,c	;# 
  2625  00F81A  6FE6               	movwf	14822,b	;# 
  2626  00F81C  5001               	movf	_EE_Key_2,w,c	;# 
  2627  00F81E  6FE6               	movwf	14822,b	;# 
  2628  00F820  83E5               	bsf	14821,1,b	;# 
  2629                           
  2630                           ;mcc_generated_files/pic18f_bootload.c: 419:     __nop();
  2631  00F822  F000               	nop	
  2632                           
  2633                           ;mcc_generated_files/pic18f_bootload.c: 420:     __nop();
  2634  00F824  F000               	nop	
  2635  00F826  0012               	return		;funcret
  2636  00F828                     __end_of_StartWrite:
  2637                           	callstack 0
  2638                           
  2639 ;; *************** function _Calc_Checksum *****************
  2640 ;; Defined at:
  2641 ;;		line 374 in file "mcc_generated_files/pic18f_bootload.c"
  2642 ;; Parameters:    Size  Location     Type
  2643 ;;		None
  2644 ;; Auto vars:     Size  Location     Type
  2645 ;;  i               2    2[COMRAM] unsigned short 
  2646 ;;  length          2    0[COMRAM] unsigned short 
  2647 ;; Return value:  Size  Location     Type
  2648 ;;                  1    wreg      unsigned char 
  2649 ;; Registers used:
  2650 ;;		wreg, status,2, status,0
  2651 ;; Tracked objects:
  2652 ;;		On entry : 0/0
  2653 ;;		On exit  : 0/0
  2654 ;;		Unchanged: 0/0
  2655 ;; Data sizes:     COMRAM   BANK0   BANK1   BANK2   BANK3   BANK4   BANK5   BANK6   BANK7   BANK8   BANK9  BANK10  BANK1
      +1  BANK12  BANK13  BANK14  BANK15
  2656 ;;      Params:         0       0       0       0       0       0       0       0       0       0       0       0       
      +0       0       0       0       0
  2657 ;;      Locals:         4       0       0       0       0       0       0       0       0       0       0       0       
      +0       0       0       0       0
  2658 ;;      Temps:          0       0       0       0       0       0       0       0       0       0       0       0       
      +0       0       0       0       0
  2659 ;;      Totals:         4       0       0       0       0       0       0       0       0       0       0       0       
      +0       0       0       0       0
  2660 ;;Total ram usage:        4 bytes
  2661 ;; Hardware stack levels used:    1
  2662 ;; This function calls:
  2663 ;;		Nothing
  2664 ;; This function is called by:
  2665 ;;		_ProcessBootBuffer
  2666 ;; This function uses a non-reentrant model
  2667 ;;
  2668                           
  2669                           	psect	text25
  2670  00FA84                     __ptext25:
  2671                           	callstack 0
  2672  00FA84                     _Calc_Checksum:
  2673                           	callstack 27
  2674  00FA84                     
  2675                           ;mcc_generated_files/pic18f_bootload.c: 380:     uint16_t i;;mcc_generated_files/pic18f_
      +                          bootload.c: 381:     uint16_t length;;mcc_generated_files/pic18f_bootload.c: 384:     TB
      +                          LPTRL = frame.address_L;
  2676  00FA84  0060  F197  FFF6   	movff	_frame+5,tblptrl	;volatile
  2677                           
  2678                           ;mcc_generated_files/pic18f_bootload.c: 385:     TBLPTRH = frame.address_H;
  2679  00FA8A  0060  F19B  FFF7   	movff	_frame+6,tblptrh	;volatile
  2680                           
  2681                           ;mcc_generated_files/pic18f_bootload.c: 386:     TBLPTRU = frame.address_U;
  2682  00FA90  0060  F19F  FFF8   	movff	_frame+7,tblptru	;volatile
  2683  00FA96                     
  2684                           ;mcc_generated_files/pic18f_bootload.c: 387:     NVMCON1 = 0x80;
  2685  00FA96  0E80               	movlw	128
  2686  00FA98  0139               	movlb	57	; () banked
  2687  00FA9A  6FE5               	movwf	229,b	;volsfr
  2688                           
  2689                           ;mcc_generated_files/pic18f_bootload.c: 388:     check_sum = 0;
  2690  00FA9C  0E00               	movlw	0
  2691  00FA9E  6E14               	movwf	(_check_sum+1)^0,c
  2692  00FAA0  0E00               	movlw	0
  2693  00FAA2  6E13               	movwf	_check_sum^0,c
  2694  00FAA4                     
  2695                           ; BSR set to: 57
  2696                           ;mcc_generated_files/pic18f_bootload.c: 389:     length = frame.data_length;
  2697  00FAA4  C061  F002         	movff	_frame+1,Calc_Checksum@length
  2698  00FAA8  C062  F003         	movff	_frame+2,Calc_Checksum@length+1
  2699                           
  2700                           ;mcc_generated_files/pic18f_bootload.c: 393:     for (i = 0; i < length; i += 2)
  2701  00FAAC  0E00               	movlw	0
  2702  00FAAE  6E05               	movwf	(Calc_Checksum@i+1)^0,c
  2703  00FAB0  0E00               	movlw	0
  2704  00FAB2  6E04               	movwf	Calc_Checksum@i^0,c
  2705  00FAB4  EF68  F07D         	goto	l1263
  2706  00FAB8                     l153:
  2707  00FAB8  0009               	tblrd		*+	;# 
  2708  00FABA                     
  2709                           ;mcc_generated_files/pic18f_bootload.c: 396:         check_sum += (uint16_t)TABLAT;
  2710  00FABA  50F5               	movf	245,w,c	;volatile
  2711  00FABC  2613               	addwf	_check_sum^0,f,c
  2712  00FABE  0E00               	movlw	0
  2713  00FAC0  2214               	addwfc	(_check_sum+1)^0,f,c
  2714  00FAC2  0009               	tblrd		*+	;# 
  2715  00FAC4                     
  2716                           ;mcc_generated_files/pic18f_bootload.c: 398:         check_sum += (uint16_t)TABLAT << 8;
  2717  00FAC4  50F5               	movf	245,w,c	;volatile
  2718  00FAC6  2614               	addwf	(_check_sum+1)^0,f,c
  2719  00FAC8                     
  2720                           ;mcc_generated_files/pic18f_bootload.c: 399:      }
  2721  00FAC8  0E02               	movlw	2
  2722  00FACA  2604               	addwf	Calc_Checksum@i^0,f,c
  2723  00FACC  0E00               	movlw	0
  2724  00FACE  2205               	addwfc	(Calc_Checksum@i+1)^0,f,c
  2725  00FAD0                     l1263:
  2726  00FAD0  5002               	movf	Calc_Checksum@length^0,w,c
  2727  00FAD2  5C04               	subwf	Calc_Checksum@i^0,w,c
  2728  00FAD4  5003               	movf	(Calc_Checksum@length+1)^0,w,c
  2729  00FAD6  5805               	subwfb	(Calc_Checksum@i+1)^0,w,c
  2730  00FAD8  A0D8               	btfss	status,0,c
  2731  00FADA  EF71  F07D         	goto	u111
  2732  00FADE  EF73  F07D         	goto	u110
  2733  00FAE2                     u111:
  2734  00FAE2  EF5C  F07D         	goto	l153
  2735  00FAE6                     u110:
  2736  00FAE6                     
  2737                           ;mcc_generated_files/pic18f_bootload.c: 400:      frame.data[0] = (uint8_t) (check_sum &
      +                           0x00FF);
  2738  00FAE6  C013  F069         	movff	_check_sum,_frame+9
  2739  00FAEA                     
  2740                           ;mcc_generated_files/pic18f_bootload.c: 401:      frame.data[1] = (uint8_t)((check_sum &
      +                           0xFF00) >> 8);
  2741  00FAEA  5014               	movf	(_check_sum+1)^0,w,c
  2742  00FAEC  0100               	movlb	0	; () banked
  2743  00FAEE  6F6A               	movwf	(_frame+10)& (0+255),b
  2744  00FAF0                     
  2745                           ; BSR set to: 0
  2746                           ;mcc_generated_files/pic18f_bootload.c: 402:      return (11);
  2747  00FAF0  0E0B               	movlw	11
  2748  00FAF2                     
  2749                           ; BSR set to: 0
  2750  00FAF2  0012               	return		;funcret
  2751  00FAF4                     __end_of_Calc_Checksum:
  2752                           	callstack 0
  2753                           
  2754 ;; *************** function _Check_Device_Reset *****************
  2755 ;; Defined at:
  2756 ;;		line 429 in file "mcc_generated_files/pic18f_bootload.c"
  2757 ;; Parameters:    Size  Location     Type
  2758 ;;		None
  2759 ;; Auto vars:     Size  Location     Type
  2760 ;;		None
  2761 ;; Return value:  Size  Location     Type
  2762 ;;                  1    wreg      void 
  2763 ;; Registers used:
  2764 ;;		wreg, status,2, status,0
  2765 ;; Tracked objects:
  2766 ;;		On entry : 0/0
  2767 ;;		On exit  : 0/0
  2768 ;;		Unchanged: 0/0
  2769 ;; Data sizes:     COMRAM   BANK0   BANK1   BANK2   BANK3   BANK4   BANK5   BANK6   BANK7   BANK8   BANK9  BANK10  BANK1
      +1  BANK12  BANK13  BANK14  BANK15
  2770 ;;      Params:         0       0       0       0       0       0       0       0       0       0       0       0       
      +0       0       0       0       0
  2771 ;;      Locals:         0       0       0       0       0       0       0       0       0       0       0       0       
      +0       0       0       0       0
  2772 ;;      Temps:          0       0       0       0       0       0       0       0       0       0       0       0       
      +0       0       0       0       0
  2773 ;;      Totals:         0       0       0       0       0       0       0       0       0       0       0       0       
      +0       0       0       0       0
  2774 ;;Total ram usage:        0 bytes
  2775 ;; Hardware stack levels used:    1
  2776 ;; This function calls:
  2777 ;;		Nothing
  2778 ;; This function is called by:
  2779 ;;		_Run_Bootloader
  2780 ;; This function uses a non-reentrant model
  2781 ;;
  2782                           
  2783                           	psect	text26
  2784  00F83A                     __ptext26:
  2785                           	callstack 0
  2786  00F83A                     _Check_Device_Reset:
  2787                           	callstack 28
  2788  00F83A                     
  2789                           ;mcc_generated_files/pic18f_bootload.c: 431:     if (reset_pending == 1)
  2790  00F83A  0416               	decf	_reset_pending^0,w,c
  2791  00F83C  A4D8               	btfss	status,2,c
  2792  00F83E  EF23  F07C         	goto	u121
  2793  00F842  EF25  F07C         	goto	u120
  2794  00F846                     u121:
  2795  00F846  EF26  F07C         	goto	l162
  2796  00F84A                     u120:
  2797  00F84A  00FF               	reset		;# 
  2798  00F84C                     l162:
  2799  00F84C  0012               	return		;funcret
  2800  00F84E                     __end_of_Check_Device_Reset:
  2801                           	callstack 0
  2802                           
  2803 ;; *************** function _AutobaudComplete *****************
  2804 ;; Defined at:
  2805 ;;		line 49 in file "main.c"
  2806 ;; Parameters:    Size  Location     Type
  2807 ;;		None
  2808 ;; Auto vars:     Size  Location     Type
  2809 ;;		None
  2810 ;; Return value:  Size  Location     Type
  2811 ;;                  1    wreg      _Bool 
  2812 ;; Registers used:
  2813 ;;		wreg
  2814 ;; Tracked objects:
  2815 ;;		On entry : 0/0
  2816 ;;		On exit  : 0/0
  2817 ;;		Unchanged: 0/0
  2818 ;; Data sizes:     COMRAM   BANK0   BANK1   BANK2   BANK3   BANK4   BANK5   BANK6   BANK7   BANK8   BANK9  BANK10  BANK1
      +1  BANK12  BANK13  BANK14  BANK15
  2819 ;;      Params:         0       0       0       0       0       0       0       0       0       0       0       0       
      +0       0       0       0       0
  2820 ;;      Locals:         0       0       0       0       0       0       0       0       0       0       0       0       
      +0       0       0       0       0
  2821 ;;      Temps:          0       0       0       0       0       0       0       0       0       0       0       0       
      +0       0       0       0       0
  2822 ;;      Totals:         0       0       0       0       0       0       0       0       0       0       0       0       
      +0       0       0       0       0
  2823 ;;Total ram usage:        0 bytes
  2824 ;; Hardware stack levels used:    1
  2825 ;; This function calls:
  2826 ;;		Nothing
  2827 ;; This function is called by:
  2828 ;;		_main
  2829 ;; This function uses a non-reentrant model
  2830 ;;
  2831                           
  2832                           	psect	text27
  2833  00F84E                     __ptext27:
  2834                           	callstack 0
  2835  00F84E                     _AutobaudComplete:
  2836                           	callstack 30
  2837  00F84E                     
  2838                           ;main.c: 50:     return (_Bool)(U1UIRbits.ABDIF);
  2839  00F84E  013D               	movlb	61	; () banked
  2840  00F850  BDF8               	btfsc	248,6,b	;volatile
  2841  00F852  EF2D  F07C         	goto	u331
  2842  00F856  EF30  F07C         	goto	u330
  2843  00F85A                     u331:
  2844  00F85A  0E01               	movlw	1
  2845  00F85C  EF31  F07C         	goto	u336
  2846  00F860                     u330:
  2847  00F860  0E00               	movlw	0
  2848  00F862                     u336:
  2849  00F862                     
  2850                           ; BSR set to: 61
  2851  00F862  0012               	return		;funcret
  2852  00F864                     __end_of_AutobaudComplete:
  2853                           	callstack 0
  2854  0000                     
  2855                           	psect	text28
  2856  000000                     __ptext28:
  2857                           	callstack 0
  2858  000000                     
  2859                           	psect	rparam
  2860  0000                     
  2861                           	psect	idloc
  2862                           
  2863                           ;Config register IDLOC0 @ 0x200000
  2864                           ;	unspecified, using default values
  2865  200000                     	org	2097152
  2866  200000  0FFF               	dw	4095
  2867                           
  2868                           ;Config register IDLOC1 @ 0x200002
  2869                           ;	unspecified, using default values
  2870  200002                     	org	2097154
  2871  200002  0FFF               	dw	4095
  2872                           
  2873                           ;Config register IDLOC2 @ 0x200004
  2874                           ;	unspecified, using default values
  2875  200004                     	org	2097156
  2876  200004  0FFF               	dw	4095
  2877                           
  2878                           ;Config register IDLOC3 @ 0x200006
  2879                           ;	unspecified, using default values
  2880  200006                     	org	2097158
  2881  200006  0FFF               	dw	4095
  2882                           
  2883                           ;Config register IDLOC4 @ 0x200008
  2884                           ;	unspecified, using default values
  2885  200008                     	org	2097160
  2886  200008  0FFF               	dw	4095
  2887                           
  2888                           ;Config register IDLOC5 @ 0x20000A
  2889                           ;	unspecified, using default values
  2890  20000A                     	org	2097162
  2891  20000A  0FFF               	dw	4095
  2892                           
  2893                           ;Config register IDLOC6 @ 0x20000C
  2894                           ;	unspecified, using default values
  2895  20000C                     	org	2097164
  2896  20000C  0FFF               	dw	4095
  2897                           
  2898                           ;Config register IDLOC7 @ 0x20000E
  2899                           ;	unspecified, using default values
  2900  20000E                     	org	2097166
  2901  20000E  0FFF               	dw	4095
  2902                           
  2903                           	psect	config
  2904                           
  2905                           ;Config register CONFIG1L @ 0x300000
  2906                           ;	External Oscillator Selection
  2907                           ;	FEXTOSC = OFF, Oscillator not enabled
  2908                           ;	Reset Oscillator Selection
  2909                           ;	RSTOSC = HFINTOSC_64MHZ, HFINTOSC with HFFRQ = 64 MHz and CDIV = 1:1
  2910  300000                     	org	3145728
  2911  300000  8C                 	db	140
  2912                           
  2913                           ;Config register CONFIG1H @ 0x300001
  2914                           ;	Clock out Enable bit
  2915                           ;	CLKOUTEN = OFF, CLKOUT function is disabled
  2916                           ;	PRLOCKED One-Way Set Enable bit
  2917                           ;	PR1WAY = ON, PRLOCK bit can be cleared and set only once
  2918                           ;	Clock Switch Enable bit
  2919                           ;	CSWEN = ON, Writing to NOSC and NDIV is allowed
  2920                           ;	Fail-Safe Clock Monitor Enable bit
  2921                           ;	FCMEN = ON, Fail-Safe Clock Monitor enabled
  2922  300001                     	org	3145729
  2923  300001  FF                 	db	255
  2924                           
  2925                           ;Config register CONFIG2L @ 0x300002
  2926                           ;	MCLR Enable bit
  2927                           ;	MCLRE = EXTMCLR, If LVP = 0, MCLR pin is MCLR; If LVP = 1, RE3 pin function is MCLR
  2928                           ;	Power-up timer selection bits
  2929                           ;	PWRTS = PWRT_OFF, PWRT is disabled
  2930                           ;	Multi-vector enable bit
  2931                           ;	MVECEN = OFF, Interrupt contoller does not use vector table to prioritze interrupts
  2932                           ;	IVTLOCK bit One-way set enable bit
  2933                           ;	IVT1WAY = ON, IVTLOCK bit can be cleared and set only once
  2934                           ;	Low Power BOR Enable bit
  2935                           ;	LPBOREN = OFF, ULPBOR disabled
  2936                           ;	Brown-out Reset Enable bits
  2937                           ;	BOREN = SBORDIS, Brown-out Reset enabled , SBOREN bit is ignored
  2938  300002                     	org	3145730
  2939  300002  F7                 	db	247
  2940                           
  2941                           ;Config register CONFIG2H @ 0x300003
  2942                           ;	Brown-out Reset Voltage Selection bits
  2943                           ;	BORV = VBOR_2P45, Brown-out Reset Voltage (VBOR) set to 2.45V
  2944                           ;	ZCD Disable bit
  2945                           ;	ZCD = OFF, ZCD disabled. ZCD can be enabled by setting the ZCDSEN bit of ZCDCON
  2946                           ;	PPSLOCK bit One-Way Set Enable bit
  2947                           ;	PPS1WAY = ON, PPSLOCK bit can be cleared and set only once; PPS registers remain locke
      +                          d after one clear/set cycle
  2948                           ;	Stack Full/Underflow Reset Enable bit
  2949                           ;	STVREN = ON, Stack full/underflow will cause Reset
  2950                           ;	Debugger Enable bit
  2951                           ;	DEBUG = OFF, Background debugger disabled
  2952                           ;	Extended Instruction Set Enable bit
  2953                           ;	XINST = OFF, Extended Instruction Set and Indexed Addressing Mode disabled
  2954  300003                     	org	3145731
  2955  300003  FF                 	db	255
  2956                           
  2957                           ;Config register CONFIG3L @ 0x300004
  2958                           ;	WDT Period selection bits
  2959                           ;	WDTCPS = WDTCPS_31, Divider ratio 1:65536; software control of WDTPS
  2960                           ;	WDT operating mode
  2961                           ;	WDTE = OFF, WDT Disabled; SWDTEN is ignored
  2962  300004                     	org	3145732
  2963  300004  9F                 	db	159
  2964                           
  2965                           ;Config register CONFIG3H @ 0x300005
  2966                           ;	WDT Window Select bits
  2967                           ;	WDTCWS = WDTCWS_7, window always open (100%); software control; keyed access not requi
      +                          red
  2968                           ;	WDT input clock selector
  2969                           ;	WDTCCS = SC, Software Control
  2970  300005                     	org	3145733
  2971  300005  FF                 	db	255
  2972                           
  2973                           ;Config register CONFIG4L @ 0x300006
  2974                           ;	Boot Block Size selection bits
  2975                           ;	BBSIZE = BBSIZE_512, Boot Block size is 512 words
  2976                           ;	Boot Block enable bit
  2977                           ;	BBEN = OFF, Boot block disabled
  2978                           ;	Storage Area Flash enable bit
  2979                           ;	SAFEN = OFF, SAF disabled
  2980                           ;	Application Block write protection bit
  2981                           ;	WRTAPP = OFF, Application Block not write protected
  2982  300006                     	org	3145734
  2983  300006  FF                 	db	255
  2984                           
  2985                           ;Config register CONFIG4H @ 0x300007
  2986                           ;	Configuration Register Write Protection bit
  2987                           ;	WRTB = OFF, Configuration registers (300000-30000Bh) not write-protected
  2988                           ;	Boot Block Write Protection bit
  2989                           ;	WRTC = OFF, Boot Block (000000-0007FFh) not write-protected
  2990                           ;	Data EEPROM Write Protection bit
  2991                           ;	WRTD = OFF, Data EEPROM not write-protected
  2992                           ;	SAF Write protection bit
  2993                           ;	WRTSAF = OFF, SAF not Write Protected
  2994                           ;	Low Voltage Programming Enable bit
  2995                           ;	LVP = ON, Low voltage programming enabled. MCLR/VPP pin function is MCLR. MCLRE config
      +                          uration bit is ignored
  2996  300007                     	org	3145735
  2997  300007  FF                 	db	255
  2998                           
  2999                           ;Config register CONFIG5L @ 0x300008
  3000                           ;	PFM and Data EEPROM Code Protection bit
  3001                           ;	CP = OFF, PFM and Data EEPROM code protection disabled
  3002  300008                     	org	3145736
  3003  300008  FF                 	db	255
  3004                           
  3005                           ;Config register CONFIG5H @ 0x300009
  3006                           ;	unspecified, using default values
  3007  300009                     	org	3145737
  3008  300009  FF                 	db	255
  3009                           tosu	equ	0x3FFF
  3010                           tosh	equ	0x3FFE
  3011                           tosl	equ	0x3FFD
  3012                           stkptr	equ	0x3FFC
  3013                           pclatu	equ	0x3FFB
  3014                           pclath	equ	0x3FFA
  3015                           pcl	equ	0x3FF9
  3016                           tblptru	equ	0x3FF8
  3017                           tblptrh	equ	0x3FF7
  3018                           tblptrl	equ	0x3FF6
  3019                           tablat	equ	0x3FF5
  3020                           prodh	equ	0x3FF4
  3021                           prodl	equ	0x3FF3
  3022                           indf0	equ	0x3FEF
  3023                           postinc0	equ	0x3FEE
  3024                           postdec0	equ	0x3FED
  3025                           preinc0	equ	0x3FEC
  3026                           plusw0	equ	0x3FEB
  3027                           fsr0h	equ	0x3FEA
  3028                           fsr0l	equ	0x3FE9
  3029                           wreg	equ	0x3FE8
  3030                           indf1	equ	0x3FE7
  3031                           postinc1	equ	0x3FE6
  3032                           postdec1	equ	0x3FE5
  3033                           preinc1	equ	0x3FE4
  3034                           plusw1	equ	0x3FE3
  3035                           fsr1h	equ	0x3FE2
  3036                           fsr1l	equ	0x3FE1
  3037                           bsr	equ	0x3FE0
  3038                           indf2	equ	0x3FDF
  3039                           postinc2	equ	0x3FDE
  3040                           postdec2	equ	0x3FDD
  3041                           preinc2	equ	0x3FDC
  3042                           plusw2	equ	0x3FDB
  3043                           fsr2h	equ	0x3FDA
  3044                           fsr2l	equ	0x3FD9
  3045                           status	equ	0x3FD8

Data Sizes:
    Strings     0
    Constant    0
    Data        0
    BSS         145
    Persistent  6
    Stack       0

Auto Spaces:
    Space          Size  Autos    Used
    COMRAM           94     15      29
    BANK0           160      0     137
    BANK1           256      0       0
    BANK2           256      0       0
    BANK3           256      0       0
    BANK4           256      0       0
    BANK5           256      0       0
    BANK6           256      0       0
    BANK7           256      0       0
    BANK8           256      0       0
    BANK9           256      0       0
    BANK10          256      0       0
    BANK11          256      0       0
    BANK12          256      0       0
    BANK13          256      0       0
    BANK14          256      0       0
    BANK15          256      0       0

Pointer List with Targets:

    UART1_SetErrorHandler@interruptHandler	PTR FTN()void  size(2) Largest target is 1
		 -> UART1_DefaultErrorHandler(), 

    UART1_SetOverrunErrorHandler@interruptHandler	PTR FTN()void  size(2) Largest target is 1
		 -> UART1_DefaultOverrunErrorHandler(), 

    UART1_SetFramingErrorHandler@interruptHandler	PTR FTN()void  size(2) Largest target is 1
		 -> UART1_DefaultFramingErrorHandler(), 

    UART1_ErrorHandler	PTR FTN()void  size(2) Largest target is 1
		 -> Absolute function(), UART1_DefaultErrorHandler(), 

    UART1_OverrunErrorHandler	PTR FTN()void  size(2) Largest target is 1
		 -> Absolute function(), UART1_DefaultOverrunErrorHandler(), 

    UART1_FramingErrorHandler	PTR FTN()void  size(2) Largest target is 1
		 -> Absolute function(), UART1_DefaultFramingErrorHandler(), 


Critical Paths under _main in COMRAM

    _UART1_Initialize->_UART1_SetErrorHandler
    _UART1_Initialize->_UART1_SetFramingErrorHandler
    _UART1_Initialize->_UART1_SetOverrunErrorHandler
    _BOOTLOADER_Initialize->_Run_Bootloader
    _Run_Bootloader->_ProcessBootBuffer
    _ProcessBootBuffer->_Write_Flash

Critical Paths under _main in BANK0

    None.

Critical Paths under _main in BANK1

    None.

Critical Paths under _main in BANK2

    None.

Critical Paths under _main in BANK3

    None.

Critical Paths under _main in BANK4

    None.

Critical Paths under _main in BANK5

    None.

Critical Paths under _main in BANK6

    None.

Critical Paths under _main in BANK7

    None.

Critical Paths under _main in BANK8

    None.

Critical Paths under _main in BANK9

    None.

Critical Paths under _main in BANK10

    None.

Critical Paths under _main in BANK11

    None.

Critical Paths under _main in BANK12

    None.

Critical Paths under _main in BANK13

    None.

Critical Paths under _main in BANK14

    None.

Critical Paths under _main in BANK15

    None.

Call Graph Tables:

 ---------------------------------------------------------------------------------
 (Depth) Function   	        Calls       Base Space   Used Autos Params    Refs
 ---------------------------------------------------------------------------------
 (0) _main                                                 1     1      0     727
                                             14 COMRAM     1     1      0
                   _AutobaudComplete
              _BOOTLOADER_Initialize
                  _SYSTEM_Initialize
 ---------------------------------------------------------------------------------
 (1) _SYSTEM_Initialize                                    0     0      0     294
              _OSCILLATOR_Initialize
             _PIN_MANAGER_Initialize
                     _PMD_Initialize
                   _UART1_Initialize
 ---------------------------------------------------------------------------------
 (2) _UART1_Initialize                                     0     0      0     294
              _UART1_SetErrorHandler
       _UART1_SetFramingErrorHandler
       _UART1_SetOverrunErrorHandler
 ---------------------------------------------------------------------------------
 (3) _UART1_SetOverrunErrorHandler                         2     0      2      98
                                              0 COMRAM     2     0      2
 ---------------------------------------------------------------------------------
 (3) _UART1_SetFramingErrorHandler                         2     0      2      98
                                              0 COMRAM     2     0      2
 ---------------------------------------------------------------------------------
 (3) _UART1_SetErrorHandler                                2     0      2      98
                                              0 COMRAM     2     0      2
 ---------------------------------------------------------------------------------
 (2) _PMD_Initialize                                       0     0      0       0
 ---------------------------------------------------------------------------------
 (2) _PIN_MANAGER_Initialize                               0     0      0       0
 ---------------------------------------------------------------------------------
 (2) _OSCILLATOR_Initialize                                0     0      0       0
 ---------------------------------------------------------------------------------
 (1) _BOOTLOADER_Initialize                                0     0      0     433
                     _Run_Bootloader
 ---------------------------------------------------------------------------------
 (2) _Run_Bootloader                                       5     5      0     433
                                              9 COMRAM     5     5      0
                 _Check_Device_Reset
                  _ProcessBootBuffer
                         _UART1_Read
                        _UART1_Write
                  _UART1_is_rx_ready
                  _UART1_is_tx_ready
 ---------------------------------------------------------------------------------
 (3) _UART1_is_tx_ready                                    1     1      0      24
                                              0 COMRAM     1     1      0
 ---------------------------------------------------------------------------------
 (3) _UART1_is_rx_ready                                    0     0      0       0
 ---------------------------------------------------------------------------------
 (3) _UART1_Write                                          1     1      0      15
                                              0 COMRAM     1     1      0
 ---------------------------------------------------------------------------------
 (3) _UART1_Read                                           0     0      0       0
                   Absolute function *
          _UART1_DefaultErrorHandler *
   _UART1_DefaultFramingErrorHandler *
   _UART1_DefaultOverrunErrorHandler *
 ---------------------------------------------------------------------------------
 (4) _UART1_DefaultOverrunErrorHandler                     0     0      0       0
 ---------------------------------------------------------------------------------
 (4) _UART1_DefaultFramingErrorHandler                     0     0      0       0
 ---------------------------------------------------------------------------------
 (4) _UART1_DefaultErrorHandler                            0     0      0       0
 ---------------------------------------------------------------------------------
 (4) Absolute function(Fake)                               0     0      0       0
 ---------------------------------------------------------------------------------
 (3) _ProcessBootBuffer                                    3     3      0     210
                                              6 COMRAM     3     3      0
                      _Calc_Checksum
                        _Erase_Flash
                   _Get_Version_Data
                        _Read_Config
                       _Write_Config
                        _Write_Flash
 ---------------------------------------------------------------------------------
 (4) _Write_Flash                                          6     6      0      45
                                              0 COMRAM     6     6      0
                         _StartWrite
 ---------------------------------------------------------------------------------
 (4) _Write_Config                                         3     3      0      30
                                              0 COMRAM     3     3      0
                         _StartWrite
 ---------------------------------------------------------------------------------
 (4) _Read_Config                                          3     3      0      30
                                              0 COMRAM     3     3      0
 ---------------------------------------------------------------------------------
 (4) _Get_Version_Data                                     1     1      0      45
                                              0 COMRAM     1     1      0
 ---------------------------------------------------------------------------------
 (4) _Erase_Flash                                          2     2      0      15
                                              0 COMRAM     2     2      0
                         _StartWrite
 ---------------------------------------------------------------------------------
 (5) _StartWrite                                           0     0      0       0
 ---------------------------------------------------------------------------------
 (4) _Calc_Checksum                                        4     4      0      30
                                              0 COMRAM     4     4      0
 ---------------------------------------------------------------------------------
 (3) _Check_Device_Reset                                   0     0      0       0
 ---------------------------------------------------------------------------------
 (1) _AutobaudComplete                                     0     0      0       0
 ---------------------------------------------------------------------------------
 Estimated maximum stack depth 5
 ---------------------------------------------------------------------------------

 Call Graph Graphs:

 _main (ROOT)
   _AutobaudComplete
   _BOOTLOADER_Initialize
     _Run_Bootloader
       _Check_Device_Reset
       _ProcessBootBuffer
         _Calc_Checksum
         _Erase_Flash
           _StartWrite
         _Get_Version_Data
         _Read_Config
         _Write_Config
           _StartWrite
         _Write_Flash
           _StartWrite
       _UART1_Read
         Absolute function(Fake) *
         _UART1_DefaultErrorHandler *
         _UART1_DefaultFramingErrorHandler *
         _UART1_DefaultOverrunErrorHandler *
       _UART1_Write
       _UART1_is_rx_ready
       _UART1_is_tx_ready
   _SYSTEM_Initialize
     _OSCILLATOR_Initialize
     _PIN_MANAGER_Initialize
     _PMD_Initialize
     _UART1_Initialize
       _UART1_SetErrorHandler
       _UART1_SetFramingErrorHandler
       _UART1_SetOverrunErrorHandler

 Address spaces:
Name               Size   Autos  Total    Cost      Usage
BIGRAM             FFE      0       0      37        0.0%
EEDATA             400      0       0       0        0.0%
BITBANK15          100      0       0      35        0.0%
BANK15             100      0       0      36        0.0%
BITBANK14          100      0       0      33        0.0%
BANK14             100      0       0      34        0.0%
BITBANK13          100      0       0      31        0.0%
BANK13             100      0       0      32        0.0%
BITBANK12          100      0       0      29        0.0%
BANK12             100      0       0      30        0.0%
BITBANK11          100      0       0      27        0.0%
BANK11             100      0       0      28        0.0%
BITBANK10          100      0       0      25        0.0%
BANK10             100      0       0      26        0.0%
BITBANK9           100      0       0      23        0.0%
BANK9              100      0       0      24        0.0%
BITBANK8           100      0       0      21        0.0%
BANK8              100      0       0      22        0.0%
BITBANK7           100      0       0      19        0.0%
BANK7              100      0       0      20        0.0%
BITBANK6           100      0       0      17        0.0%
BANK6              100      0       0      18        0.0%
BITBANK5           100      0       0      15        0.0%
BANK5              100      0       0      16        0.0%
BITBANK4           100      0       0      13        0.0%
BANK4              100      0       0      14        0.0%
BITBANK3           100      0       0      11        0.0%
BANK3              100      0       0      12        0.0%
BITBANK2           100      0       0       9        0.0%
BANK2              100      0       0      10        0.0%
BITBANK1           100      0       0       7        0.0%
BANK1              100      0       0       8        0.0%
BITBANK0            A0      0       0       4        0.0%
BANK0               A0      0      89       5       85.6%
BITCOMRAM           5E      0       0       0        0.0%
COMRAM              5E      F      1D       1       30.9%
BITSFR_9             0      0       0     200        0.0%
SFR_9                0      0       0     200        0.0%
BITSFR_8             0      0       0     200        0.0%
SFR_8                0      0       0     200        0.0%
BITSFR_7             0      0       0     200        0.0%
SFR_7                0      0       0     200        0.0%
BITSFR_6             0      0       0     200        0.0%
SFR_6                0      0       0     200        0.0%
BITSFR_5             0      0       0     200        0.0%
SFR_5                0      0       0     200        0.0%
BITSFR_4             0      0       0     200        0.0%
SFR_4                0      0       0     200        0.0%
BITSFR_3             0      0       0     200        0.0%
SFR_3                0      0       0     200        0.0%
BITSFR_2             0      0       0     200        0.0%
SFR_2                0      0       0     200        0.0%
BITSFR_1             0      0       0     200        0.0%
SFR_1                0      0       0     200        0.0%
BITSFR               0      0       0     200        0.0%
SFR                  0      0       0     200        0.0%
STACK                0      0       0       2        0.0%
NULL                 0      0       0       0        0.0%
ABS                  0      0      A6       6        0.0%
DATA                 0      0      A6       3        0.0%
CODE                 0      0       0       0        0.0%


Microchip Technology PIC18 Macro Assembler V2.31 build 20201012212115 
Symbol Table                                                                                   Sun Mar 07 00:51:44 2021

                               ??_Erase_Flash 0002                                            l40 F890  
                                          l43 F90A                                            l37 F838  
                                          l96 F8C4                                            u10 FBFC  
                                          u11 FBF8                                            u20 FE34  
                                          u21 FE30                                            u30 FE58  
                                          u31 FE54                                            u40 FE90  
                                          u41 FE8C                                            u50 FEB4  
                                          u51 FEB0                                            u60 FB2C  
                                          u61 FB28                                            u70 FB68  
                                          u71 FB64                                            u80 FA16  
                                          u81 FA12                                            u90 FC2C  
                                          u91 FC28                        __size_of_Calc_Checksum 0070  
                                         l112 FD84                                           l113 FDE4  
                                         l123 FE3E                                           l116 FBD6  
                                         l124 FEC4                                           l141 FA1A  
                                         l205 FEC6                                           l134 FB78  
                                         l118 FBFE                                           l206 FEC6  
                                         l127 FE90                                           l208 FEC8  
                                         l153 FAB8                                           l145 FC3C  
                                         l162 F84C                                           l154 FAE6  
                                         l155 FAF2                                           l139 F9E2  
                                         l411 F878                                           l219 FF86  
                                         l173 F862                                           l149 FC8A  
                                         l158 F826                                           l342 F9C0  
                                         l431 FD26                                           l415 F934  
                                         l440 F7EC                                           l416 F936  
                                         l408 FA82                                           l425 FC8C  
                                         l434 F894                                           l443 F7EE  
                                         l452 F814                                           l437 F8AA  
                                         l446 F7EA                                           l455 F800  
                                         l449 F80A                          __size_of_Write_Flash 00E0  
                                         _BSR 003FE0                                           u100 FC7C  
                                         u101 FC78                                           u110 FAE6  
                                         u111 FAE2                                           u120 F84A  
                                         u121 F846                                           u130 F876  
                                         u131 F870                                           u140 FC9C  
                                         u141 FC98                                           u150 FCB0  
                                         u230 F8A4                                           u151 FCAC  
                                         u231 F8A0                                           u208 FD0E  
                                         u136 F878                                           u209 FD22  
                                         u330 F860                                           u170 FCDC  
                                         u331 F85A                                           u171 FCD8  
                                         u500 FF60                                           u501 FF5C  
                                         u190 FD08                                           u430 F920  
                                         u510 FF86                                           u191 FD04  
                                         u431 F91C                                           u511 FF82  
                                         u336 F862                                           u168 FCB8  
                                         u440 F930                                           u520 FFC2  
                                         u169 FCCC                                           u441 F92C  
                                         u521 FFBE                                           u530 FFF6  
                                         u450 FED8                                           u531 FFF2  
                                         u451 FED4                                           u188 FCE4  
                                         u460 FEFC                                           u540 F950  
                                         u189 FCF8                                           u461 FEF8  
                                         u541 F94C                                           u470 FF28  
                                         u471 FF24                                           u480 FF3C  
                                         u481 FF38                                           u490 FF4E  
                                         u491 FF4A                                           u557 F95A  
                                         u567 FF6A                                           u577 FF92  
                                         u587 FFDC                      __end_of_AutobaudComplete F864  
                     __size_of_PMD_Initialize 0024                                           tosl 003FFD  
                                         wreg 003FE8                         _BOOTLOADER_Initialize F8AC  
                                        l1201 FB40                                          l1131 F816  
                                        l1203 FB4C                                          l1301 F84A  
                                        l1205 FB50                                          l1133 FB7A  
                                        l1221 F9F8                                          l1213 F9C2  
                                        l1207 FB68                                          l1151 FBFC  
                                        l1135 FB98                                          l1223 FA16  
                                        l1215 F9D4                                          l1231 FC2C  
                                        l1311 FCA0                                          l1303 F864  
                                        l1145 FBD8                                          l1137 FBA6  
                                        l1217 F9E4                                          l1241 FC5C  
                                        l1233 FC36                                          l1161 FE1A  
                                        l1321 FCDE                                          l1313 FCB0  
                                        l1251 FA84                                          l1147 FBEA  
                                        l1139 FBAE                                          l1219 F9F6  
                                        l1235 FC44                                          l1243 FC5E  
                                        l1227 FC00                                          l1171 FE58  
                                        l1163 FE34                                          l1155 FDE6  
                                        l1323 FCF8                                          l1315 FCB2  
                                        l1307 FC8C                                          l1261 FAC8  
                                        l1253 FA96                                          l1149 FBEC  
                                        l1245 FC7C                                          l1237 FC56  
                                        l1229 FC12                                          l1173 FE92  
                                        l1165 FE38                                          l1157 FDF8  
                                        l1325 FD08                                          l1317 FCCC  
                                        l1309 FC9C                                          l1341 F894  
                                        l1263 FAD0                                          l1255 FAA4  
                                        l1191 FB2C                                          l1247 FC88  
                                        l1239 FC5A                                          l1175 FE98  
                                        l1159 FE0A                                          l1271 FD28  
                                        l1327 FD22                                          l1319 FCDC  
                                        l1343 F8A4                                          l1351 F8E8  
                                        l1441 F84E                                          l1265 FAEA  
                                        l1257 FABA                                          l1193 FB30  
                                        l1185 FAF4                                          l1169 FE40  
                                        l1177 FE9C                                          l1281 FD60  
                                        l1273 FD38                                          l1361 F9A8  
                                        l1353 F96C                                          l1267 FAF0  
                                        l1259 FAC4                                          l1187 FB06  
                                        l1179 FEB4                                          l1283 FD6A  
                                        l1275 FD42                                          l1291 FDE2  
                                        l1371 F9B2                                          l1363 F9AA  
                                        l1355 F978                                          l1197 FB36  
                                        l1189 FB12                                          l1285 FD74  
                                        l1277 FD4C                                          l1701 F8AC  
                                        l1373 F87A                                          l1365 F9AC  
                                        l1357 F988                                          l1199 FB3C  
                                        l1287 FD86                                          l1279 FD56  
                                        l1631 F920                                          l1703 F8B4  
                                        l1367 F9AE                                          l1359 F98A  
                                        l1711 F93C                                          l1289 FD8E  
                                        l1633 F930                                          l1705 F8B8  
                                        l1369 F9B0                                          l1641 F7F8  
                                        l1713 F950                                          l1299 F83A  
                                        l1627 F90C                                          l1707 F8BC  
                                        l1651 FA7E                                          l1643 FA1C  
                                        l1715 F954                                          l1629 F910  
                                        l1661 FEFC                                          l1653 FED8  
                                        l1637 F802                                          l1645 FA5A  
                                        l1709 F938                                          l1671 FF3C  
                                        l1663 FF02                                          l1655 FEDC  
                                        l1639 F80C                                          l1647 FA66  
                                        l1737 FDA4                                          l1681 FF88  
                                        l1673 FF4E                                          l1665 FF14  
                                        l1657 FEE0                                          l1649 FA72  
                                        l1691 FFD4                                          l1683 FFA0  
                                        l1675 FF60                                          l1667 FF16  
                                        l1659 FEE8                                          l1693 FFD6  
                                        l1685 FFA6                                          l1669 FF28  
                                        l1677 FF64                                          l1687 FFAE  
                                        l1695 FFE4                                          l1679 FF74  
                                        l1689 FFC2                                          l1697 F828  
                                        l1699 F834                                          _LATA 003FBA  
                                        _LATB 003FBB                         __size_of_Write_Config 008C  
                                        _LATC 003FBC                                          _PMD0 0039C0  
                                        _PMD1 0039C1                                          _PMD2 0039C2  
                                        _PMD3 0039C3                                          _PMD4 0039C4  
                                        _PMD5 0039C5                                          _PMD6 0039C6  
                                        _PMD7 0039C7                                          _WPUA 003A41  
                                        _WPUB 003A51                                          _WPUC 003A61  
                                        _WPUE 003A81                                          _main F938  
                                        indf2 003FDF                                          fsr2l 003FD9  
                                        start FFFC                                  ___param_bank 000000  
                               ??_Read_Config 0002                    __size_of_UART1_is_rx_ready 0016  
                                 ?_UART1_Read 0002                    __size_of_UART1_is_tx_ready 002C  
                  __size_of_ProcessBootBuffer 00BE                __size_of_OSCILLATOR_Initialize 0018  
               __end_of_OSCILLATOR_Initialize F892                                         ?_main 0002  
                         __end_of_Erase_Flash FB7A                                         _U1P1H 003DED  
                                       _U1P2H 003DEF                                         _U1P1L 003DEC  
                                       _U1P3H 003DF1                                         _U1P2L 003DEE  
                                       _U1P3L 003DF0                                         _U1UIR 003DF8  
                                       _U1RXB 003DE8                                         _U1TXB 003DEA  
                                       _OSCEN 0039DD                                         _TRISA 003FC2  
                                       _TRISB 003FC3                                         _TRISC 003FC4  
                                _Write_Config FC00                                         _frame 0060  
                                       pclath 003FFA                                 _Calc_Checksum FA84  
                                       status 003FD8           fp__UART1_DefaultFramingErrorHandler 0000  
    __end_of_UART1_DefaultFramingErrorHandler F7EE     __size_of_UART1_DefaultFramingErrorHandler 0002  
          ??_UART1_DefaultFramingErrorHandler 0002             ?_UART1_DefaultFramingErrorHandler 0002  
            _UART1_DefaultFramingErrorHandler F7EC                               __initialization F8C6  
                                __end_of_main F96C                   ??_UART1_DefaultErrorHandler 0002  
                                ?_UART1_Write 0002                         _UART1_is_tx_ready$727 0002  
                                      ??_main 0010                                 __activetblptr 000002  
                         __end_of_Read_Config FA1C                        ?_BOOTLOADER_Initialize 0002  
                            _UART1_Initialize FA1C                                        NVMCON1 0039E5  
                                      NVMCON2 0039E6                                        _ANSELA 003A40  
                                      _ANSELB 003A50                                        _ANSELC 003A60  
                              ?_Calc_Checksum 0002                                        _U1CON0 003DF2  
                                      _U1CON1 003DF3                                        _U1CON2 003DF4  
                         __size_of_UART1_Read 009C                                        _U1BRGH 003DF6  
                                      _U1FIFO 003DF7                                        _U1BRGL 003DF5  
                                      _ODCONA 003A42                                        _ODCONB 003A52  
                                      _ODCONC 003A62                                        _RC6PPS 003A16  
                                      _INLVLA 003A44                                        _INLVLB 003A54  
                                      _INLVLC 003A64                                        _INLVLE 003A84  
                                      _TABLAT 003FF5                                        _OSCFRQ 0039DF  
                                      _TBLPTR 003FF6                                        _NVMDAT 0039E3  
                       _UART1_SetErrorHandler F7F8                                        _STKPTR 003FFC  
                   __size_of_Get_Version_Data 0086                                   _Erase_Flash FAF4  
                                      clear_0 F8CC                                        clear_1 F8D8  
                 __size_of_Check_Device_Reset 0014                                _PMD_Initialize F8E8  
                                Read_Config@i 0004                                        tblptru 003FF8  
        __end_of_UART1_SetOverrunErrorHandler F816         __size_of_UART1_SetOverrunErrorHandler 000A  
                _UART1_SetOverrunErrorHandler F80C                     _UART1_DefaultErrorHandler F7EA  
                                  _StartWrite F816                             _SYSTEM_Initialize F828  
                                  __accesstop 0060                       __end_of__initialization F8DE  
                          ?_SYSTEM_Initialize 0002                                 ___rparam_used 000001  
                              __pcstackCOMRAM 0002                           ??_SYSTEM_Initialize 0004  
                                 _Read_Config F9C2                        __end_of_PMD_Initialize F90C  
                           ?_AutobaudComplete 0002                     _UART1_FramingErrorHandler 001D  
                          ??_AutobaudComplete 0002                               ??_Calc_Checksum 0002  
                   __end_of_SYSTEM_Initialize F83A                                    __pbssBANK0 0060  
               ?_UART1_SetOverrunErrorHandler 0002                        ?_UART1_SetErrorHandler 0002  
                                  __pnvCOMRAM 0019                                  Write_Flash@i 0006  
                                ??_UART1_Read 0002                                 ??_Write_Flash 0002  
                             ?_PMD_Initialize 0002                                       _U1ERRIE 003DFA  
                                     _U1ERRIR 003DF9                          __size_of_UART1_Write 001A  
                                     _U1RXPPS 003AE7                                       _OSCCON1 0039D9  
                                     _OSCCON3 0039DB                                       _TBLPTRH 003FF7  
                                     _TBLPTRL 003FF6                                       _TBLPTRU 003FF8  
                                     _NVMADRH 0039E1                                       _NVMADRL 0039E0  
                                     _OSCTUNE 0039DE                                       _NVMCON1 0039E5  
                                     _NVMCON2 0039E6                                       _SLRCONA 003A43  
                                     _SLRCONB 003A53                                       _SLRCONC 003A63  
                                 ?_StartWrite 0002                            __end_of_UART1_Read FD28  
                     __size_of_Run_Bootloader 0136                              _Get_Version_Data FB7A  
                                     __Hparam 0000                                       __Lparam 0000  
                    __end_of_UART1_Initialize FA84                                       __pcinit F8C6  
                                     __ramtop 1000                       ??_BOOTLOADER_Initialize 0010  
                                     __ptext0 F938                                       __ptext1 F828  
                                     __ptext2 FA1C                                       __ptext3 F80C  
                                     __ptext4 F802                                       __ptext5 F7F8  
                                     __ptext6 F8E8                                       __ptext7 F96C  
                                     __ptext8 F87A                                       __ptext9 F8AC  
                                     _counter 0011                         _OSCILLATOR_Initialize F87A  
                         __end_of_Write_Flash FEC6                      ??_PIN_MANAGER_Initialize 0002  
                                     _rx_data 0018                                       _tx_data 0017  
                  __size_of_SYSTEM_Initialize 0012                          end_of_initialization F8DE  
                                   _U1UIRbits 003DF8                                 __Lmediumconst 0000  
              ??_UART1_SetOverrunErrorHandler 0004                                       postdec2 003FDD  
                                ?_Erase_Flash 0002                                       postinc0 003FEE  
                                     postinc2 003FDE                           __size_of_StartWrite 0012  
                           UART1_Write@txData 0002                                  ?_Read_Config 0002  
                  __end_of_Check_Device_Reset F84E                                   _Write_Flash FDE6  
                      ?_OSCILLATOR_Initialize 0002                           start_initialization F8C6  
             __size_of_PIN_MANAGER_Initialize 0056                       ??_UART1_SetErrorHandler 0004  
                              _Run_Bootloader FEC6                     __size_of_AutobaudComplete 0016  
                            ??_PMD_Initialize 0002                                 ?_Write_Config 0002  
                    __end_of_Get_Version_Data FC00                                   __pbssCOMRAM 0011  
                          _UART1_ErrorHandler 0019                                  ??_StartWrite 0002  
                       __end_of_Calc_Checksum FAF4                        __end_of_Run_Bootloader FFFC  
                               Write_Config@i 0004                  fp__UART1_DefaultErrorHandler 0000  
                                   _check_sum 0013                        _PIN_MANAGER_Initialize F96C  
                           ?_UART1_Initialize 0002          __end_of_UART1_SetFramingErrorHandler F80C  
       __size_of_UART1_SetFramingErrorHandler 000A                  _UART1_SetFramingErrorHandler F802  
                          ??_UART1_Initialize 0004                              _uart1RxLastError 0015  
                               ??_UART1_Write 0002                          __size_of_Erase_Flash 0086  
                          __end_of_StartWrite F828                                ??_Write_Config 0002  
              __size_of_BOOTLOADER_Initialize 001A                 __end_of_BOOTLOADER_Initialize F8C6  
         fp__UART1_DefaultOverrunErrorHandler 0000      __end_of_UART1_DefaultOverrunErrorHandler F7F0  
   __size_of_UART1_DefaultOverrunErrorHandler 0002            ??_UART1_DefaultOverrunErrorHandler 0002  
           ?_UART1_DefaultOverrunErrorHandler 0002              _UART1_DefaultOverrunErrorHandler F7EE  
                                 _U1ERRIRbits 003DF9                               ?_Run_Bootloader 0002  
                                    _EE_Key_1 000000                                      _EE_Key_2 000001  
       UART1_SetErrorHandler@interruptHandler 0002                                      _LATBbits 003FBB  
                               _reset_pending 0016                                      _PIR0bits 0039A0  
                                    _PIR3bits 0039A3                 ?_UART1_SetFramingErrorHandler 0002  
                        __size_of_Read_Config 005A                           __end_of_UART1_Write F8AC  
                    Run_Bootloader@msg_length 000E                                   _INTCON0bits 003FD2  
                        ProcessBootBuffer@len 000A                              _AutobaudComplete F84E  
                                    __Hrparam 0000                                      __Lrparam 0000  
                     ??_OSCILLATOR_Initialize 0002                                  ?_Write_Flash 0002  
                          _Check_Device_Reset F83A                                      __ptext10 FEC6  
                                    __ptext11 F90C                                      __ptext20 FC00  
                                    __ptext12 F864                                      __ptext21 F9C2  
                                    __ptext13 F892                                      __ptext22 FB7A  
                                    __ptext14 FC8C                                      __ptext23 FAF4  
                                    __ptext15 F7EE                                      __ptext24 F816  
                                    __ptext16 F7EC                                      __ptext25 FA84  
                                    __ptext17 F7EA                                      __ptext26 F83A  
                                    __ptext18 FD28                                      __ptext27 F84E  
                                    __ptext19 FDE6                                      __ptext28 0000  
                                  _U1CON0bits 003DF2                __size_of_UART1_SetErrorHandler 000A  
               __end_of_UART1_SetErrorHandler F802                           ?_Check_Device_Reset 0002  
                               __size_of_main 0034                              Run_Bootloader@ch 000D  
                        __end_of_Write_Config FC8C                           Calc_Checksum@length 0002  
                         Run_Bootloader@index 000F                     _UART1_OverrunErrorHandler 001B  
UART1_SetOverrunErrorHandler@interruptHandler 0002            __size_of_UART1_DefaultErrorHandler 0002  
                  ?_UART1_DefaultErrorHandler 0002                             _UART1_is_rx_ready F864  
                        ??_Check_Device_Reset 0002                                   _UART1_Write F892  
                           _UART1_is_tx_ready F90C                             _ProcessBootBuffer FD28  
                          ?_UART1_is_rx_ready 0002                ??_UART1_SetFramingErrorHandler 0004  
                          ?_UART1_is_tx_ready 0002                             Get_Version_Data@i 0002  
                          ?_ProcessBootBuffer 0002                                   _NVMCON1bits 0039E5  
                           ?_Get_Version_Data 0002                           ??_UART1_is_rx_ready 0002  
                          ??_Get_Version_Data 0002                           ??_UART1_is_tx_ready 0002  
                         ??_ProcessBootBuffer 0008                       ?_PIN_MANAGER_Initialize 0002  
                   __end_of_UART1_is_rx_ready F87A                                    _UART1_Read FC8C  
UART1_SetFramingErrorHandler@interruptHandler 0002                     __end_of_UART1_is_tx_ready F938  
           __end_of_UART1_DefaultErrorHandler F7EC                     __end_of_ProcessBootBuffer FDE6  
                                Erase_Flash@i 0002                     __size_of_UART1_Initialize 0068  
                            ??_Run_Bootloader 000B                __end_of_PIN_MANAGER_Initialize F9C2  
                              Calc_Checksum@i 0004  
